ARM GAS  C:\Users\kotaro\AppData\Local\Temp\ccFdJQ9j.s 			page 1


   1              		.cpu cortex-m4
   2              		.eabi_attribute 27, 1
   3              		.eabi_attribute 28, 1
   4              		.eabi_attribute 20, 1
   5              		.eabi_attribute 21, 1
   6              		.eabi_attribute 23, 3
   7              		.eabi_attribute 24, 1
   8              		.eabi_attribute 25, 1
   9              		.eabi_attribute 26, 1
  10              		.eabi_attribute 30, 1
  11              		.eabi_attribute 34, 1
  12              		.eabi_attribute 18, 4
  13              		.file	"control.c"
  14              		.text
  15              	.Ltext0:
  16              		.cfi_sections	.debug_frame
  17              		.global	__aeabi_i2d
  18              		.global	__aeabi_dmul
  19              		.global	__aeabi_ddiv
  20              		.global	__aeabi_f2d
  21              		.global	__aeabi_d2iz
  22              		.section	.text.control_accel,"ax",%progbits
  23              		.align	1
  24              		.global	control_accel
  25              		.syntax unified
  26              		.thumb
  27              		.thumb_func
  28              		.fpu fpv4-sp-d16
  30              	control_accel:
  31              	.LFB159:
  32              		.file 1 "Src/control.c"
   1:Src/control.c **** #include "control.h"
   2:Src/control.c **** #include "stdint.h"
   3:Src/control.c **** #include "global.h"
   4:Src/control.c **** #include "tim.h"
   5:Src/control.c **** #include "arm_math.h"
   6:Src/control.c **** #include "main.h"
   7:Src/control.c **** #include "stm32f4xx_hal.h"
   8:Src/control.c **** 
   9:Src/control.c **** //argument : accel[mm/s^2]
  10:Src/control.c **** void control_accel(int16_t accel_l,int16_t accel_r){
  33              		.loc 1 10 0
  34              		.cfi_startproc
  35              		@ args = 0, pretend = 0, frame = 0
  36              		@ frame_needed = 0, uses_anonymous_args = 0
  37              	.LVL0:
  38 0000 2DE9F843 		push	{r3, r4, r5, r6, r7, r8, r9, lr}
  39              	.LCFI0:
  40              		.cfi_def_cfa_offset 32
  41              		.cfi_offset 3, -32
  42              		.cfi_offset 4, -28
  43              		.cfi_offset 5, -24
  44              		.cfi_offset 6, -20
  45              		.cfi_offset 7, -16
  46              		.cfi_offset 8, -12
  47              		.cfi_offset 9, -8
  48              		.cfi_offset 14, -4
ARM GAS  C:\Users\kotaro\AppData\Local\Temp\ccFdJQ9j.s 			page 2


  49 0004 0D46     		mov	r5, r1
  11:Src/control.c ****   int8_t pwm_l,pwm_r;
  12:Src/control.c **** 
  13:Src/control.c ****   pwm_l = KT*0.001*accel_l/2.0/TIRE_RADIUS/PI*60.0*60.0/sit.batt;
  50              		.loc 1 13 0
  51 0006 FFF7FEFF 		bl	__aeabi_i2d
  52              	.LVL1:
  53 000a 2FA3     		adr	r3, .L3+8
  54 000c D3E90023 		ldrd	r2, [r3]
  55 0010 FFF7FEFF 		bl	__aeabi_dmul
  56              	.LVL2:
  57 0014 0022     		movs	r2, #0
  58 0016 2E4B     		ldr	r3, .L3+16
  59 0018 FFF7FEFF 		bl	__aeabi_dmul
  60              	.LVL3:
  61 001c 0022     		movs	r2, #0
  62 001e 2D4B     		ldr	r3, .L3+20
  63 0020 FFF7FEFF 		bl	__aeabi_ddiv
  64              	.LVL4:
  65 0024 26A3     		adr	r3, .L3
  66 0026 D3E90023 		ldrd	r2, [r3]
  67 002a FFF7FEFF 		bl	__aeabi_ddiv
  68              	.LVL5:
  69 002e 0022     		movs	r2, #0
  70 0030 294B     		ldr	r3, .L3+24
  71 0032 FFF7FEFF 		bl	__aeabi_dmul
  72              	.LVL6:
  73 0036 0022     		movs	r2, #0
  74 0038 274B     		ldr	r3, .L3+24
  75 003a FFF7FEFF 		bl	__aeabi_dmul
  76              	.LVL7:
  77 003e 8046     		mov	r8, r0
  78 0040 8946     		mov	r9, r1
  79 0042 264B     		ldr	r3, .L3+28
  80 0044 9868     		ldr	r0, [r3, #8]	@ float
  81 0046 FFF7FEFF 		bl	__aeabi_f2d
  82              	.LVL8:
  83 004a 0646     		mov	r6, r0
  84 004c 0F46     		mov	r7, r1
  85 004e 0246     		mov	r2, r0
  86 0050 0B46     		mov	r3, r1
  87 0052 4046     		mov	r0, r8
  88 0054 4946     		mov	r1, r9
  89 0056 FFF7FEFF 		bl	__aeabi_ddiv
  90              	.LVL9:
  91 005a FFF7FEFF 		bl	__aeabi_d2iz
  92              	.LVL10:
  93 005e 44B2     		sxtb	r4, r0
  94              	.LVL11:
  14:Src/control.c ****   pwm_r = KT*0.001*accel_r/2.0/TIRE_RADIUS/PI*60.0*60.0/sit.batt;
  95              		.loc 1 14 0
  96 0060 2846     		mov	r0, r5
  97 0062 FFF7FEFF 		bl	__aeabi_i2d
  98              	.LVL12:
  99 0066 18A3     		adr	r3, .L3+8
 100 0068 D3E90023 		ldrd	r2, [r3]
 101 006c FFF7FEFF 		bl	__aeabi_dmul
ARM GAS  C:\Users\kotaro\AppData\Local\Temp\ccFdJQ9j.s 			page 3


 102              	.LVL13:
 103 0070 0022     		movs	r2, #0
 104 0072 174B     		ldr	r3, .L3+16
 105 0074 FFF7FEFF 		bl	__aeabi_dmul
 106              	.LVL14:
 107 0078 0022     		movs	r2, #0
 108 007a 164B     		ldr	r3, .L3+20
 109 007c FFF7FEFF 		bl	__aeabi_ddiv
 110              	.LVL15:
 111 0080 0FA3     		adr	r3, .L3
 112 0082 D3E90023 		ldrd	r2, [r3]
 113 0086 FFF7FEFF 		bl	__aeabi_ddiv
 114              	.LVL16:
 115 008a 0022     		movs	r2, #0
 116 008c 124B     		ldr	r3, .L3+24
 117 008e FFF7FEFF 		bl	__aeabi_dmul
 118              	.LVL17:
 119 0092 0022     		movs	r2, #0
 120 0094 104B     		ldr	r3, .L3+24
 121 0096 FFF7FEFF 		bl	__aeabi_dmul
 122              	.LVL18:
 123 009a 3246     		mov	r2, r6
 124 009c 3B46     		mov	r3, r7
 125 009e FFF7FEFF 		bl	__aeabi_ddiv
 126              	.LVL19:
 127 00a2 FFF7FEFF 		bl	__aeabi_d2iz
 128              	.LVL20:
  15:Src/control.c **** 
  16:Src/control.c ****   motor.pwm_l += pwm_l;
 129              		.loc 1 16 0
 130 00a6 0E4B     		ldr	r3, .L3+32
 131 00a8 1A88     		ldrh	r2, [r3]
 132 00aa 1444     		add	r4, r4, r2
 133              	.LVL21:
 134 00ac 1C80     		strh	r4, [r3]	@ movhi
  17:Src/control.c ****   motor.pwm_r += pwm_r;
 135              		.loc 1 17 0
 136 00ae 5A88     		ldrh	r2, [r3, #2]
 137 00b0 42FA80F0 		sxtab	r0, r2, r0
 138              	.LVL22:
 139 00b4 5880     		strh	r0, [r3, #2]	@ movhi
  18:Src/control.c **** 
  19:Src/control.c ****   //Motor_pwm(pwm_l,pwm_r);
  20:Src/control.c **** 
  21:Src/control.c **** }
 140              		.loc 1 21 0
 141 00b6 BDE8F883 		pop	{r3, r4, r5, r6, r7, r8, r9, pc}
 142              	.L4:
 143 00ba 00BFAFF3 		.align	3
 143      0080
 144              	.L3:
 145 00c0 00000060 		.word	1610612736
 146 00c4 FB210940 		.word	1074340347
 147 00c8 2AE3DF67 		.word	1742725930
 148 00cc 5C38603F 		.word	1063270492
 149 00d0 0000E03F 		.word	1071644672
 150 00d4 00002840 		.word	1076363264
ARM GAS  C:\Users\kotaro\AppData\Local\Temp\ccFdJQ9j.s 			page 4


 151 00d8 00004E40 		.word	1078853632
 152 00dc 00000000 		.word	sit
 153 00e0 00000000 		.word	motor
 154              		.cfi_endproc
 155              	.LFE159:
 157              		.global	__aeabi_dadd
 158              		.global	__aeabi_dsub
 159              		.section	.text.straight_one,"ax",%progbits
 160              		.align	1
 161              		.global	straight_one
 162              		.syntax unified
 163              		.thumb
 164              		.thumb_func
 165              		.fpu fpv4-sp-d16
 167              	straight_one:
 168              	.LFB160:
  22:Src/control.c **** 
  23:Src/control.c **** /****************************************************************************************
  24:Src/control.c ****  * outline  : straight run one block
  25:Src/control.c ****  * argument : void
  26:Src/control.c ****  * return   : void
  27:Src/control.c **** ********************************************************************************************/
  28:Src/control.c **** void straight_one(void){
 169              		.loc 1 28 0
 170              		.cfi_startproc
 171              		@ args = 0, pretend = 0, frame = 0
 172              		@ frame_needed = 0, uses_anonymous_args = 0
  29:Src/control.c ****     if(flag.accel == OFF){
 173              		.loc 1 29 0
 174 0000 434B     		ldr	r3, .L18+24
 175 0002 B3F90230 		ldrsh	r3, [r3, #2]
 176 0006 13B1     		cbz	r3, .L16
  30:Src/control.c ****         motor.pwm_l = 0;
  31:Src/control.c ****         motor.pwm_r = 0;
  32:Src/control.c ****         speed_count = 0;
  33:Src/control.c ****     }else if(flag.accel == ON){
 177              		.loc 1 33 0
 178 0008 012B     		cmp	r3, #1
 179 000a 06D0     		beq	.L17
 180 000c 7047     		bx	lr
 181              	.L16:
  30:Src/control.c ****         motor.pwm_l = 0;
 182              		.loc 1 30 0
 183 000e 414A     		ldr	r2, .L18+28
 184 0010 1380     		strh	r3, [r2]	@ movhi
  31:Src/control.c ****         speed_count = 0;
 185              		.loc 1 31 0
 186 0012 5380     		strh	r3, [r2, #2]	@ movhi
  32:Src/control.c ****     }else if(flag.accel == ON){
 187              		.loc 1 32 0
 188 0014 404A     		ldr	r2, .L18+32
 189 0016 1380     		strh	r3, [r2]	@ movhi
 190 0018 7047     		bx	lr
 191              	.L17:
  28:Src/control.c ****     if(flag.accel == OFF){
 192              		.loc 1 28 0
 193 001a D0B5     		push	{r4, r6, r7, lr}
ARM GAS  C:\Users\kotaro\AppData\Local\Temp\ccFdJQ9j.s 			page 5


 194              	.LCFI1:
 195              		.cfi_def_cfa_offset 16
 196              		.cfi_offset 4, -16
 197              		.cfi_offset 6, -12
 198              		.cfi_offset 7, -8
 199              		.cfi_offset 14, -4
  34:Src/control.c ****         if(speed_count < 300){
 200              		.loc 1 34 0
 201 001c 3E4B     		ldr	r3, .L18+32
 202 001e 1C88     		ldrh	r4, [r3]
 203 0020 B4F5967F 		cmp	r4, #300
 204 0024 25D2     		bcs	.L8
  35:Src/control.c ****             motor.pwm_l = 999*(Resistance*TORQUE/KT+KE*0.001*enc.rpm_l)/sit.batt;
 205              		.loc 1 35 0
 206 0026 3D4B     		ldr	r3, .L18+36
 207 0028 B3F91000 		ldrsh	r0, [r3, #16]
 208 002c FFF7FEFF 		bl	__aeabi_i2d
 209              	.LVL23:
 210 0030 31A3     		adr	r3, .L18
 211 0032 D3E90023 		ldrd	r2, [r3]
 212 0036 FFF7FEFF 		bl	__aeabi_dmul
 213              	.LVL24:
 214 003a 31A3     		adr	r3, .L18+8
 215 003c D3E90023 		ldrd	r2, [r3]
 216 0040 FFF7FEFF 		bl	__aeabi_dadd
 217              	.LVL25:
 218 0044 30A3     		adr	r3, .L18+16
 219 0046 D3E90023 		ldrd	r2, [r3]
 220 004a FFF7FEFF 		bl	__aeabi_dmul
 221              	.LVL26:
 222 004e 0646     		mov	r6, r0
 223 0050 0F46     		mov	r7, r1
 224 0052 334B     		ldr	r3, .L18+40
 225 0054 9868     		ldr	r0, [r3, #8]	@ float
 226 0056 FFF7FEFF 		bl	__aeabi_f2d
 227              	.LVL27:
 228 005a 0246     		mov	r2, r0
 229 005c 0B46     		mov	r3, r1
 230 005e 3046     		mov	r0, r6
 231 0060 3946     		mov	r1, r7
 232 0062 FFF7FEFF 		bl	__aeabi_ddiv
 233              	.LVL28:
 234 0066 FFF7FEFF 		bl	__aeabi_d2iz
 235              	.LVL29:
 236 006a 00B2     		sxth	r0, r0
 237 006c 294B     		ldr	r3, .L18+28
 238 006e 1880     		strh	r0, [r3]	@ movhi
  36:Src/control.c ****             motor.pwm_r = motor.pwm_l;
 239              		.loc 1 36 0
 240 0070 5880     		strh	r0, [r3, #2]	@ movhi
 241              	.L8:
  37:Src/control.c ****         }
  38:Src/control.c **** 
  39:Src/control.c ****         if(speed_count >= 300 && speed_count < 600){
 242              		.loc 1 39 0
 243 0072 A4F59673 		sub	r3, r4, #300
 244 0076 9BB2     		uxth	r3, r3
ARM GAS  C:\Users\kotaro\AppData\Local\Temp\ccFdJQ9j.s 			page 6


 245 0078 B3F5967F 		cmp	r3, #300
 246 007c 03D2     		bcs	.L9
  40:Src/control.c ****             motor.pwm_l = 0;
 247              		.loc 1 40 0
 248 007e 254B     		ldr	r3, .L18+28
 249 0080 0022     		movs	r2, #0
 250 0082 1A80     		strh	r2, [r3]	@ movhi
  41:Src/control.c ****             motor.pwm_r = 0;
 251              		.loc 1 41 0
 252 0084 5A80     		strh	r2, [r3, #2]	@ movhi
 253              	.L9:
  42:Src/control.c ****         }
  43:Src/control.c **** 
  44:Src/control.c ****         if(speed_count >= 600 && speed_count < 900){
 254              		.loc 1 44 0
 255 0086 A4F51673 		sub	r3, r4, #600
 256 008a 9BB2     		uxth	r3, r3
 257 008c B3F5967F 		cmp	r3, #300
 258 0090 25D2     		bcs	.L10
  45:Src/control.c ****             motor.pwm_l = 999*(-Resistance*TORQUE/KT+KE*0.001*enc.rpm_l)/sit.batt;
 259              		.loc 1 45 0
 260 0092 224B     		ldr	r3, .L18+36
 261 0094 B3F91000 		ldrsh	r0, [r3, #16]
 262 0098 FFF7FEFF 		bl	__aeabi_i2d
 263              	.LVL30:
 264 009c 16A3     		adr	r3, .L18
 265 009e D3E90023 		ldrd	r2, [r3]
 266 00a2 FFF7FEFF 		bl	__aeabi_dmul
 267              	.LVL31:
 268 00a6 16A3     		adr	r3, .L18+8
 269 00a8 D3E90023 		ldrd	r2, [r3]
 270 00ac FFF7FEFF 		bl	__aeabi_dsub
 271              	.LVL32:
 272 00b0 15A3     		adr	r3, .L18+16
 273 00b2 D3E90023 		ldrd	r2, [r3]
 274 00b6 FFF7FEFF 		bl	__aeabi_dmul
 275              	.LVL33:
 276 00ba 0646     		mov	r6, r0
 277 00bc 0F46     		mov	r7, r1
 278 00be 184B     		ldr	r3, .L18+40
 279 00c0 9868     		ldr	r0, [r3, #8]	@ float
 280 00c2 FFF7FEFF 		bl	__aeabi_f2d
 281              	.LVL34:
 282 00c6 0246     		mov	r2, r0
 283 00c8 0B46     		mov	r3, r1
 284 00ca 3046     		mov	r0, r6
 285 00cc 3946     		mov	r1, r7
 286 00ce FFF7FEFF 		bl	__aeabi_ddiv
 287              	.LVL35:
 288 00d2 FFF7FEFF 		bl	__aeabi_d2iz
 289              	.LVL36:
 290 00d6 00B2     		sxth	r0, r0
 291 00d8 0E4B     		ldr	r3, .L18+28
 292 00da 1880     		strh	r0, [r3]	@ movhi
  46:Src/control.c ****             motor.pwm_r = motor.pwm_l;
 293              		.loc 1 46 0
 294 00dc 5880     		strh	r0, [r3, #2]	@ movhi
ARM GAS  C:\Users\kotaro\AppData\Local\Temp\ccFdJQ9j.s 			page 7


 295              	.L10:
  47:Src/control.c ****         }
  48:Src/control.c ****         if(speed_count >= 900){
 296              		.loc 1 48 0
 297 00de B4F5617F 		cmp	r4, #900
 298 00e2 02D3     		bcc	.L11
  49:Src/control.c ****             flag.accel = OFF;
 299              		.loc 1 49 0
 300 00e4 0A4B     		ldr	r3, .L18+24
 301 00e6 0022     		movs	r2, #0
 302 00e8 5A80     		strh	r2, [r3, #2]	@ movhi
 303              	.L11:
  50:Src/control.c ****         }
  51:Src/control.c ****         speed_count ++;
 304              		.loc 1 51 0
 305 00ea 0134     		adds	r4, r4, #1
 306 00ec 0A4B     		ldr	r3, .L18+32
 307 00ee 1C80     		strh	r4, [r3]	@ movhi
  52:Src/control.c ****     }
  53:Src/control.c **** }
 308              		.loc 1 53 0
 309 00f0 D0BD     		pop	{r4, r6, r7, pc}
 310              	.L19:
 311 00f2 00BFAFF3 		.align	3
 311      0080
 312              	.L18:
 313 00f8 2A36E675 		.word	1978021418
 314 00fc C4212B3F 		.word	1059791300
 315 0100 57460810 		.word	268977751
 316 0104 2FABBB3F 		.word	1069263663
 317 0108 00000000 		.word	0
 318 010c 00388F40 		.word	1083127808
 319 0110 00000000 		.word	flag
 320 0114 00000000 		.word	motor
 321 0118 00000000 		.word	speed_count
 322 011c 00000000 		.word	enc
 323 0120 00000000 		.word	sit
 324              		.cfi_endproc
 325              	.LFE160:
 327              		.section	.text.Sensor_Check,"ax",%progbits
 328              		.align	1
 329              		.global	Sensor_Check
 330              		.syntax unified
 331              		.thumb
 332              		.thumb_func
 333              		.fpu fpv4-sp-d16
 335              	Sensor_Check:
 336              	.LFB161:
  54:Src/control.c **** 
  55:Src/control.c **** void Sensor_Check(void){
 337              		.loc 1 55 0
 338              		.cfi_startproc
 339              		@ args = 0, pretend = 0, frame = 0
 340              		@ frame_needed = 0, uses_anonymous_args = 0
 341 0000 08B5     		push	{r3, lr}
 342              	.LCFI2:
 343              		.cfi_def_cfa_offset 8
ARM GAS  C:\Users\kotaro\AppData\Local\Temp\ccFdJQ9j.s 			page 8


 344              		.cfi_offset 3, -8
 345              		.cfi_offset 14, -4
  56:Src/control.c ****     if(sensor.wall[0]==true){
 346              		.loc 1 56 0
 347 0002 214B     		ldr	r3, .L34
 348 0004 1B8B     		ldrh	r3, [r3, #24]
 349 0006 012B     		cmp	r3, #1
 350 0008 23D0     		beq	.L30
  57:Src/control.c ****         HAL_GPIO_WritePin(led0_GPIO_Port,led0_Pin,GPIO_PIN_RESET);
  58:Src/control.c ****     }else{
  59:Src/control.c ****         HAL_GPIO_WritePin(led0_GPIO_Port,led0_Pin,GPIO_PIN_SET);
 351              		.loc 1 59 0
 352 000a 0122     		movs	r2, #1
 353 000c 4FF40051 		mov	r1, #8192
 354 0010 1E48     		ldr	r0, .L34+4
 355 0012 FFF7FEFF 		bl	HAL_GPIO_WritePin
 356              	.LVL37:
 357              	.L22:
  60:Src/control.c ****     }
  61:Src/control.c ****     if(sensor.wall[1]==true){
 358              		.loc 1 61 0
 359 0016 1C4B     		ldr	r3, .L34
 360 0018 5B8B     		ldrh	r3, [r3, #26]
 361 001a 012B     		cmp	r3, #1
 362 001c 20D0     		beq	.L31
  62:Src/control.c ****         HAL_GPIO_WritePin(led3_GPIO_Port,led3_Pin,GPIO_PIN_RESET);
  63:Src/control.c ****     }else{
  64:Src/control.c ****         HAL_GPIO_WritePin(led3_GPIO_Port,led3_Pin,GPIO_PIN_SET);
 363              		.loc 1 64 0
 364 001e 0122     		movs	r2, #1
 365 0020 4FF48071 		mov	r1, #256
 366 0024 1948     		ldr	r0, .L34+4
 367 0026 FFF7FEFF 		bl	HAL_GPIO_WritePin
 368              	.LVL38:
 369              	.L24:
  65:Src/control.c ****     }
  66:Src/control.c ****     if(sensor.wall[2]==true){
 370              		.loc 1 66 0
 371 002a 174B     		ldr	r3, .L34
 372 002c 9B8B     		ldrh	r3, [r3, #28]
 373 002e 012B     		cmp	r3, #1
 374 0030 1DD0     		beq	.L32
  67:Src/control.c ****         HAL_GPIO_WritePin(led2_GPIO_Port,led2_Pin,GPIO_PIN_RESET);
  68:Src/control.c ****     }else{
  69:Src/control.c ****         HAL_GPIO_WritePin(led2_GPIO_Port,led2_Pin,GPIO_PIN_SET);
 375              		.loc 1 69 0
 376 0032 0122     		movs	r2, #1
 377 0034 8021     		movs	r1, #128
 378 0036 1548     		ldr	r0, .L34+4
 379 0038 FFF7FEFF 		bl	HAL_GPIO_WritePin
 380              	.LVL39:
 381              	.L26:
  70:Src/control.c ****     }
  71:Src/control.c ****     if(sensor.wall[3]==true){
 382              		.loc 1 71 0
 383 003c 124B     		ldr	r3, .L34
 384 003e DB8B     		ldrh	r3, [r3, #30]
ARM GAS  C:\Users\kotaro\AppData\Local\Temp\ccFdJQ9j.s 			page 9


 385 0040 012B     		cmp	r3, #1
 386 0042 1AD0     		beq	.L33
  72:Src/control.c ****         HAL_GPIO_WritePin(led1_GPIO_Port,led1_Pin,GPIO_PIN_RESET);
  73:Src/control.c ****     }else{
  74:Src/control.c ****         HAL_GPIO_WritePin(led1_GPIO_Port,led1_Pin,GPIO_PIN_SET);
 387              		.loc 1 74 0
 388 0044 0122     		movs	r2, #1
 389 0046 4FF48041 		mov	r1, #16384
 390 004a 1048     		ldr	r0, .L34+4
 391 004c FFF7FEFF 		bl	HAL_GPIO_WritePin
 392              	.LVL40:
 393              	.L20:
  75:Src/control.c ****     }
  76:Src/control.c ****     
  77:Src/control.c **** }...
 394              		.loc 1 77 0
 395 0050 08BD     		pop	{r3, pc}
 396              	.L30:
  57:Src/control.c ****         HAL_GPIO_WritePin(led0_GPIO_Port,led0_Pin,GPIO_PIN_RESET);
 397              		.loc 1 57 0
 398 0052 0022     		movs	r2, #0
 399 0054 4FF40051 		mov	r1, #8192
 400 0058 0C48     		ldr	r0, .L34+4
 401 005a FFF7FEFF 		bl	HAL_GPIO_WritePin
 402              	.LVL41:
 403 005e DAE7     		b	.L22
 404              	.L31:
  62:Src/control.c ****         HAL_GPIO_WritePin(led3_GPIO_Port,led3_Pin,GPIO_PIN_RESET);
 405              		.loc 1 62 0
 406 0060 0022     		movs	r2, #0
 407 0062 4FF48071 		mov	r1, #256
 408 0066 0948     		ldr	r0, .L34+4
 409 0068 FFF7FEFF 		bl	HAL_GPIO_WritePin
 410              	.LVL42:
 411 006c DDE7     		b	.L24
 412              	.L32:
  67:Src/control.c ****         HAL_GPIO_WritePin(led2_GPIO_Port,led2_Pin,GPIO_PIN_RESET);
 413              		.loc 1 67 0
 414 006e 0022     		movs	r2, #0
 415 0070 8021     		movs	r1, #128
 416 0072 0648     		ldr	r0, .L34+4
 417 0074 FFF7FEFF 		bl	HAL_GPIO_WritePin
 418              	.LVL43:
 419 0078 E0E7     		b	.L26
 420              	.L33:
  72:Src/control.c ****         HAL_GPIO_WritePin(led1_GPIO_Port,led1_Pin,GPIO_PIN_RESET);
 421              		.loc 1 72 0
 422 007a 0022     		movs	r2, #0
 423 007c 4FF48041 		mov	r1, #16384
 424 0080 0248     		ldr	r0, .L34+4
 425 0082 FFF7FEFF 		bl	HAL_GPIO_WritePin
 426              	.LVL44:
 427 0086 E3E7     		b	.L20
 428              	.L35:
 429              		.align	2
 430              	.L34:
 431 0088 00000000 		.word	sensor
ARM GAS  C:\Users\kotaro\AppData\Local\Temp\ccFdJQ9j.s 			page 10


 432 008c 00080240 		.word	1073874944
 433              		.cfi_endproc
 434              	.LFE161:
 436              		.text
 437              	.Letext0:
 438              		.file 2 "c:\\program files (x86)\\gnu tools arm embedded\\7 2017-q4-major\\arm-none-eabi\\include\
 439              		.file 3 "c:\\program files (x86)\\gnu tools arm embedded\\7 2017-q4-major\\arm-none-eabi\\include\
 440              		.file 4 "c:\\program files (x86)\\gnu tools arm embedded\\7 2017-q4-major\\arm-none-eabi\\include\
 441              		.file 5 "c:\\program files (x86)\\gnu tools arm embedded\\7 2017-q4-major\\arm-none-eabi\\include\
 442              		.file 6 "c:\\program files (x86)\\gnu tools arm embedded\\7 2017-q4-major\\lib\\gcc\\arm-none-eabi
 443              		.file 7 "c:\\program files (x86)\\gnu tools arm embedded\\7 2017-q4-major\\arm-none-eabi\\include\
 444              		.file 8 "Inc/global.h"
 445              		.file 9 "Drivers/CMSIS/Include/core_cm4.h"
 446              		.file 10 "Drivers/CMSIS/Device/ST/STM32F4xx/Include/system_stm32f4xx.h"
 447              		.file 11 "Drivers/CMSIS/Device/ST/STM32F4xx/Include/stm32f405xx.h"
 448              		.file 12 "Drivers/STM32F4xx_HAL_Driver/Inc/stm32f4xx_hal_def.h"
 449              		.file 13 "Drivers/STM32F4xx_HAL_Driver/Inc/stm32f4xx_hal_gpio.h"
 450              		.file 14 "Drivers/STM32F4xx_HAL_Driver/Inc/stm32f4xx_hal_dma.h"
 451              		.file 15 "Drivers/STM32F4xx_HAL_Driver/Inc/stm32f4xx_hal_tim.h"
 452              		.file 16 "Inc/tim.h"
 453              		.file 17 "c:\\program files (x86)\\gnu tools arm embedded\\7 2017-q4-major\\arm-none-eabi\\include
ARM GAS  C:\Users\kotaro\AppData\Local\Temp\ccFdJQ9j.s 			page 11


DEFINED SYMBOLS
                            *ABS*:00000000 control.c
C:\Users\kotaro\AppData\Local\Temp\ccFdJQ9j.s:23     .text.control_accel:00000000 $t
C:\Users\kotaro\AppData\Local\Temp\ccFdJQ9j.s:30     .text.control_accel:00000000 control_accel
C:\Users\kotaro\AppData\Local\Temp\ccFdJQ9j.s:145    .text.control_accel:000000c0 $d
C:\Users\kotaro\AppData\Local\Temp\ccFdJQ9j.s:160    .text.straight_one:00000000 $t
C:\Users\kotaro\AppData\Local\Temp\ccFdJQ9j.s:167    .text.straight_one:00000000 straight_one
C:\Users\kotaro\AppData\Local\Temp\ccFdJQ9j.s:313    .text.straight_one:000000f8 $d
C:\Users\kotaro\AppData\Local\Temp\ccFdJQ9j.s:328    .text.Sensor_Check:00000000 $t
C:\Users\kotaro\AppData\Local\Temp\ccFdJQ9j.s:335    .text.Sensor_Check:00000000 Sensor_Check
C:\Users\kotaro\AppData\Local\Temp\ccFdJQ9j.s:431    .text.Sensor_Check:00000088 $d

UNDEFINED SYMBOLS
__aeabi_i2d
__aeabi_dmul
__aeabi_ddiv
__aeabi_f2d
__aeabi_d2iz
sit
motor
__aeabi_dadd
__aeabi_dsub
flag
speed_count
enc
HAL_GPIO_WritePin
sensor
