ARM GAS  C:\Users\kotaro\AppData\Local\Temp\cc3cViSg.s 			page 1


   1              		.cpu cortex-m4
   2              		.eabi_attribute 27, 1
   3              		.eabi_attribute 28, 1
   4              		.eabi_attribute 20, 1
   5              		.eabi_attribute 21, 1
   6              		.eabi_attribute 23, 3
   7              		.eabi_attribute 24, 1
   8              		.eabi_attribute 25, 1
   9              		.eabi_attribute 26, 1
  10              		.eabi_attribute 30, 1
  11              		.eabi_attribute 34, 1
  12              		.eabi_attribute 18, 4
  13              		.file	"gpio.c"
  14              		.text
  15              	.Ltext0:
  16              		.cfi_sections	.debug_frame
  17              		.section	.text.MX_GPIO_Init,"ax",%progbits
  18              		.align	1
  19              		.global	MX_GPIO_Init
  20              		.syntax unified
  21              		.thumb
  22              		.thumb_func
  23              		.fpu fpv4-sp-d16
  25              	MX_GPIO_Init:
  26              	.LFB126:
  27              		.file 1 "Src/gpio.c"
   1:Src/gpio.c    **** /**
   2:Src/gpio.c    ****   ******************************************************************************
   3:Src/gpio.c    ****   * File Name          : gpio.c
   4:Src/gpio.c    ****   * Description        : This file provides code for the configuration
   5:Src/gpio.c    ****   *                      of all used GPIO pins.
   6:Src/gpio.c    ****   ******************************************************************************
   7:Src/gpio.c    ****   ** This notice applies to any and all portions of this file
   8:Src/gpio.c    ****   * that are not between comment pairs USER CODE BEGIN and
   9:Src/gpio.c    ****   * USER CODE END. Other portions of this file, whether 
  10:Src/gpio.c    ****   * inserted by the user or by software development tools
  11:Src/gpio.c    ****   * are owned by their respective copyright owners.
  12:Src/gpio.c    ****   *
  13:Src/gpio.c    ****   * COPYRIGHT(c) 2018 STMicroelectronics
  14:Src/gpio.c    ****   *
  15:Src/gpio.c    ****   * Redistribution and use in source and binary forms, with or without modification,
  16:Src/gpio.c    ****   * are permitted provided that the following conditions are met:
  17:Src/gpio.c    ****   *   1. Redistributions of source code must retain the above copyright notice,
  18:Src/gpio.c    ****   *      this list of conditions and the following disclaimer.
  19:Src/gpio.c    ****   *   2. Redistributions in binary form must reproduce the above copyright notice,
  20:Src/gpio.c    ****   *      this list of conditions and the following disclaimer in the documentation
  21:Src/gpio.c    ****   *      and/or other materials provided with the distribution.
  22:Src/gpio.c    ****   *   3. Neither the name of STMicroelectronics nor the names of its contributors
  23:Src/gpio.c    ****   *      may be used to endorse or promote products derived from this software
  24:Src/gpio.c    ****   *      without specific prior written permission.
  25:Src/gpio.c    ****   *
  26:Src/gpio.c    ****   * THIS SOFTWARE IS PROVIDED BY THE COPYRIGHT HOLDERS AND CONTRIBUTORS "AS IS"
  27:Src/gpio.c    ****   * AND ANY EXPRESS OR IMPLIED WARRANTIES, INCLUDING, BUT NOT LIMITED TO, THE
  28:Src/gpio.c    ****   * IMPLIED WARRANTIES OF MERCHANTABILITY AND FITNESS FOR A PARTICULAR PURPOSE ARE
  29:Src/gpio.c    ****   * DISCLAIMED. IN NO EVENT SHALL THE COPYRIGHT HOLDER OR CONTRIBUTORS BE LIABLE
  30:Src/gpio.c    ****   * FOR ANY DIRECT, INDIRECT, INCIDENTAL, SPECIAL, EXEMPLARY, OR CONSEQUENTIAL
  31:Src/gpio.c    ****   * DAMAGES (INCLUDING, BUT NOT LIMITED TO, PROCUREMENT OF SUBSTITUTE GOODS OR
ARM GAS  C:\Users\kotaro\AppData\Local\Temp\cc3cViSg.s 			page 2


  32:Src/gpio.c    ****   * SERVICES; LOSS OF USE, DATA, OR PROFITS; OR BUSINESS INTERRUPTION) HOWEVER
  33:Src/gpio.c    ****   * CAUSED AND ON ANY THEORY OF LIABILITY, WHETHER IN CONTRACT, STRICT LIABILITY,
  34:Src/gpio.c    ****   * OR TORT (INCLUDING NEGLIGENCE OR OTHERWISE) ARISING IN ANY WAY OUT OF THE USE
  35:Src/gpio.c    ****   * OF THIS SOFTWARE, EVEN IF ADVISED OF THE POSSIBILITY OF SUCH DAMAGE.
  36:Src/gpio.c    ****   *
  37:Src/gpio.c    ****   ******************************************************************************
  38:Src/gpio.c    ****   */
  39:Src/gpio.c    **** 
  40:Src/gpio.c    **** /* Includes ------------------------------------------------------------------*/
  41:Src/gpio.c    **** #include "gpio.h"
  42:Src/gpio.c    **** /* USER CODE BEGIN 0 */
  43:Src/gpio.c    **** 
  44:Src/gpio.c    **** /* USER CODE END 0 */
  45:Src/gpio.c    **** 
  46:Src/gpio.c    **** /*----------------------------------------------------------------------------*/
  47:Src/gpio.c    **** /* Configure GPIO                                                             */
  48:Src/gpio.c    **** /*----------------------------------------------------------------------------*/
  49:Src/gpio.c    **** /* USER CODE BEGIN 1 */
  50:Src/gpio.c    **** 
  51:Src/gpio.c    **** /* USER CODE END 1 */
  52:Src/gpio.c    **** 
  53:Src/gpio.c    **** /** Configure pins as 
  54:Src/gpio.c    ****         * Analog 
  55:Src/gpio.c    ****         * Input 
  56:Src/gpio.c    ****         * Output
  57:Src/gpio.c    ****         * EVENT_OUT
  58:Src/gpio.c    ****         * EXTI
  59:Src/gpio.c    **** */
  60:Src/gpio.c    **** void MX_GPIO_Init(void)
  61:Src/gpio.c    **** {
  28              		.loc 1 61 0
  29              		.cfi_startproc
  30              		@ args = 0, pretend = 0, frame = 40
  31              		@ frame_needed = 0, uses_anonymous_args = 0
  32 0000 F0B5     		push	{r4, r5, r6, r7, lr}
  33              	.LCFI0:
  34              		.cfi_def_cfa_offset 20
  35              		.cfi_offset 4, -20
  36              		.cfi_offset 5, -16
  37              		.cfi_offset 6, -12
  38              		.cfi_offset 7, -8
  39              		.cfi_offset 14, -4
  40 0002 8BB0     		sub	sp, sp, #44
  41              	.LCFI1:
  42              		.cfi_def_cfa_offset 64
  43              	.LBB2:
  62:Src/gpio.c    **** 
  63:Src/gpio.c    ****   GPIO_InitTypeDef GPIO_InitStruct;
  64:Src/gpio.c    **** 
  65:Src/gpio.c    ****   /* GPIO Ports Clock Enable */
  66:Src/gpio.c    ****   __HAL_RCC_GPIOC_CLK_ENABLE();
  44              		.loc 1 66 0
  45 0004 0024     		movs	r4, #0
  46 0006 0194     		str	r4, [sp, #4]
  47 0008 2A4B     		ldr	r3, .L3
  48 000a 1A6B     		ldr	r2, [r3, #48]
  49 000c 42F00402 		orr	r2, r2, #4
ARM GAS  C:\Users\kotaro\AppData\Local\Temp\cc3cViSg.s 			page 3


  50 0010 1A63     		str	r2, [r3, #48]
  51 0012 1A6B     		ldr	r2, [r3, #48]
  52 0014 02F00402 		and	r2, r2, #4
  53 0018 0192     		str	r2, [sp, #4]
  54 001a 019A     		ldr	r2, [sp, #4]
  55              	.LBE2:
  56              	.LBB3:
  67:Src/gpio.c    ****   __HAL_RCC_GPIOA_CLK_ENABLE();
  57              		.loc 1 67 0
  58 001c 0294     		str	r4, [sp, #8]
  59 001e 1A6B     		ldr	r2, [r3, #48]
  60 0020 42F00102 		orr	r2, r2, #1
  61 0024 1A63     		str	r2, [r3, #48]
  62 0026 1A6B     		ldr	r2, [r3, #48]
  63 0028 02F00102 		and	r2, r2, #1
  64 002c 0292     		str	r2, [sp, #8]
  65 002e 029A     		ldr	r2, [sp, #8]
  66              	.LBE3:
  67              	.LBB4:
  68:Src/gpio.c    ****   __HAL_RCC_GPIOB_CLK_ENABLE();
  68              		.loc 1 68 0
  69 0030 0394     		str	r4, [sp, #12]
  70 0032 1A6B     		ldr	r2, [r3, #48]
  71 0034 42F00202 		orr	r2, r2, #2
  72 0038 1A63     		str	r2, [r3, #48]
  73 003a 1A6B     		ldr	r2, [r3, #48]
  74 003c 02F00202 		and	r2, r2, #2
  75 0040 0392     		str	r2, [sp, #12]
  76 0042 039A     		ldr	r2, [sp, #12]
  77              	.LBE4:
  78              	.LBB5:
  69:Src/gpio.c    ****   __HAL_RCC_GPIOD_CLK_ENABLE();
  79              		.loc 1 69 0
  80 0044 0494     		str	r4, [sp, #16]
  81 0046 1A6B     		ldr	r2, [r3, #48]
  82 0048 42F00802 		orr	r2, r2, #8
  83 004c 1A63     		str	r2, [r3, #48]
  84 004e 1B6B     		ldr	r3, [r3, #48]
  85 0050 03F00803 		and	r3, r3, #8
  86 0054 0493     		str	r3, [sp, #16]
  87 0056 049B     		ldr	r3, [sp, #16]
  88              	.LBE5:
  70:Src/gpio.c    **** 
  71:Src/gpio.c    ****   /*Configure GPIO pin Output Level */
  72:Src/gpio.c    ****   HAL_GPIO_WritePin(GPIOC, led0_Pin|led1_Pin|paluse0_Pin|paluse1_Pin 
  89              		.loc 1 72 0
  90 0058 174F     		ldr	r7, .L3+4
  91 005a 2246     		mov	r2, r4
  92 005c 46F2CF11 		movw	r1, #25039
  93 0060 3846     		mov	r0, r7
  94 0062 FFF7FEFF 		bl	HAL_GPIO_WritePin
  95              	.LVL0:
  73:Src/gpio.c    ****                           |paluse2_Pin|paluse3_Pin|gyro_int_Pin|led2_Pin 
  74:Src/gpio.c    ****                           |led3_Pin, GPIO_PIN_RESET);
  75:Src/gpio.c    **** 
  76:Src/gpio.c    ****   /*Configure GPIO pin Output Level */
  77:Src/gpio.c    ****   HAL_GPIO_WritePin(gyro_cs_GPIO_Port, gyro_cs_Pin, GPIO_PIN_RESET);
ARM GAS  C:\Users\kotaro\AppData\Local\Temp\cc3cViSg.s 			page 4


  96              		.loc 1 77 0
  97 0066 154D     		ldr	r5, .L3+8
  98 0068 2246     		mov	r2, r4
  99 006a 4FF48051 		mov	r1, #4096
 100 006e 2846     		mov	r0, r5
 101 0070 FFF7FEFF 		bl	HAL_GPIO_WritePin
 102              	.LVL1:
  78:Src/gpio.c    **** 
  79:Src/gpio.c    ****   /*Configure GPIO pins : PCPin PCPin PCPin PCPin 
  80:Src/gpio.c    ****                            PCPin PCPin PCPin PCPin 
  81:Src/gpio.c    ****                            PCPin */
  82:Src/gpio.c    ****   GPIO_InitStruct.Pin = led0_Pin|led1_Pin|paluse0_Pin|paluse1_Pin 
 103              		.loc 1 82 0
 104 0074 46F2CF13 		movw	r3, #25039
 105 0078 0593     		str	r3, [sp, #20]
  83:Src/gpio.c    ****                           |paluse2_Pin|paluse3_Pin|gyro_int_Pin|led2_Pin 
  84:Src/gpio.c    ****                           |led3_Pin;
  85:Src/gpio.c    ****   GPIO_InitStruct.Mode = GPIO_MODE_OUTPUT_PP;
 106              		.loc 1 85 0
 107 007a 0126     		movs	r6, #1
 108 007c 0696     		str	r6, [sp, #24]
  86:Src/gpio.c    ****   GPIO_InitStruct.Pull = GPIO_NOPULL;
 109              		.loc 1 86 0
 110 007e 0794     		str	r4, [sp, #28]
  87:Src/gpio.c    ****   GPIO_InitStruct.Speed = GPIO_SPEED_FREQ_LOW;
 111              		.loc 1 87 0
 112 0080 0894     		str	r4, [sp, #32]
  88:Src/gpio.c    ****   HAL_GPIO_Init(GPIOC, &GPIO_InitStruct);
 113              		.loc 1 88 0
 114 0082 05A9     		add	r1, sp, #20
 115 0084 3846     		mov	r0, r7
 116 0086 FFF7FEFF 		bl	HAL_GPIO_Init
 117              	.LVL2:
  89:Src/gpio.c    **** 
  90:Src/gpio.c    ****   /*Configure GPIO pin : PtPin */
  91:Src/gpio.c    ****   GPIO_InitStruct.Pin = gyro_cs_Pin;
 118              		.loc 1 91 0
 119 008a 4FF48053 		mov	r3, #4096
 120 008e 0593     		str	r3, [sp, #20]
  92:Src/gpio.c    ****   GPIO_InitStruct.Mode = GPIO_MODE_OUTPUT_PP;
 121              		.loc 1 92 0
 122 0090 0696     		str	r6, [sp, #24]
  93:Src/gpio.c    ****   GPIO_InitStruct.Pull = GPIO_NOPULL;
 123              		.loc 1 93 0
 124 0092 0794     		str	r4, [sp, #28]
  94:Src/gpio.c    ****   GPIO_InitStruct.Speed = GPIO_SPEED_FREQ_LOW;
 125              		.loc 1 94 0
 126 0094 0894     		str	r4, [sp, #32]
  95:Src/gpio.c    ****   HAL_GPIO_Init(gyro_cs_GPIO_Port, &GPIO_InitStruct);
 127              		.loc 1 95 0
 128 0096 05A9     		add	r1, sp, #20
 129 0098 2846     		mov	r0, r5
 130 009a FFF7FEFF 		bl	HAL_GPIO_Init
 131              	.LVL3:
  96:Src/gpio.c    **** 
  97:Src/gpio.c    ****   /*Configure GPIO pin : PtPin */
  98:Src/gpio.c    ****   GPIO_InitStruct.Pin = push0_Pin;
ARM GAS  C:\Users\kotaro\AppData\Local\Temp\cc3cViSg.s 			page 5


 132              		.loc 1 98 0
 133 009e 0423     		movs	r3, #4
 134 00a0 0593     		str	r3, [sp, #20]
  99:Src/gpio.c    ****   GPIO_InitStruct.Mode = GPIO_MODE_INPUT;
 135              		.loc 1 99 0
 136 00a2 0694     		str	r4, [sp, #24]
 100:Src/gpio.c    ****   GPIO_InitStruct.Pull = GPIO_NOPULL;
 137              		.loc 1 100 0
 138 00a4 0794     		str	r4, [sp, #28]
 101:Src/gpio.c    ****   HAL_GPIO_Init(push0_GPIO_Port, &GPIO_InitStruct);
 139              		.loc 1 101 0
 140 00a6 05A9     		add	r1, sp, #20
 141 00a8 0548     		ldr	r0, .L3+12
 142 00aa FFF7FEFF 		bl	HAL_GPIO_Init
 143              	.LVL4:
 102:Src/gpio.c    **** 
 103:Src/gpio.c    **** }
 144              		.loc 1 103 0
 145 00ae 0BB0     		add	sp, sp, #44
 146              	.LCFI2:
 147              		.cfi_def_cfa_offset 20
 148              		@ sp needed
 149 00b0 F0BD     		pop	{r4, r5, r6, r7, pc}
 150              	.L4:
 151 00b2 00BF     		.align	2
 152              	.L3:
 153 00b4 00380240 		.word	1073887232
 154 00b8 00080240 		.word	1073874944
 155 00bc 00040240 		.word	1073873920
 156 00c0 000C0240 		.word	1073875968
 157              		.cfi_endproc
 158              	.LFE126:
 160              		.section	.text.Push,"ax",%progbits
 161              		.align	1
 162              		.global	Push
 163              		.syntax unified
 164              		.thumb
 165              		.thumb_func
 166              		.fpu fpv4-sp-d16
 168              	Push:
 169              	.LFB127:
 104:Src/gpio.c    **** 
 105:Src/gpio.c    **** 
 106:Src/gpio.c    **** /* USER CODE BEGIN 2 */
 107:Src/gpio.c    **** int8_t Push(void){
 170              		.loc 1 107 0
 171              		.cfi_startproc
 172              		@ args = 0, pretend = 0, frame = 0
 173              		@ frame_needed = 0, uses_anonymous_args = 0
 174 0000 08B5     		push	{r3, lr}
 175              	.LCFI3:
 176              		.cfi_def_cfa_offset 8
 177              		.cfi_offset 3, -8
 178              		.cfi_offset 14, -4
 108:Src/gpio.c    ****   if(HAL_GPIO_ReadPin(push0_GPIO_Port,push0_Pin) == GPIO_PIN_RESET) return 1;
 179              		.loc 1 108 0
 180 0002 0421     		movs	r1, #4
ARM GAS  C:\Users\kotaro\AppData\Local\Temp\cc3cViSg.s 			page 6


 181 0004 0348     		ldr	r0, .L10
 182 0006 FFF7FEFF 		bl	HAL_GPIO_ReadPin
 183              	.LVL5:
 184 000a 08B1     		cbz	r0, .L9
 109:Src/gpio.c    ****   else                                                              return 0;
 185              		.loc 1 109 0
 186 000c 0020     		movs	r0, #0
 187              	.L6:
 110:Src/gpio.c    **** }
 188              		.loc 1 110 0
 189 000e 08BD     		pop	{r3, pc}
 190              	.L9:
 108:Src/gpio.c    ****   if(HAL_GPIO_ReadPin(push0_GPIO_Port,push0_Pin) == GPIO_PIN_RESET) return 1;
 191              		.loc 1 108 0
 192 0010 0120     		movs	r0, #1
 193 0012 FCE7     		b	.L6
 194              	.L11:
 195              		.align	2
 196              	.L10:
 197 0014 000C0240 		.word	1073875968
 198              		.cfi_endproc
 199              	.LFE127:
 201              		.section	.text.All_LED_ON,"ax",%progbits
 202              		.align	1
 203              		.global	All_LED_ON
 204              		.syntax unified
 205              		.thumb
 206              		.thumb_func
 207              		.fpu fpv4-sp-d16
 209              	All_LED_ON:
 210              	.LFB128:
 111:Src/gpio.c    **** void All_LED_ON(void)
 112:Src/gpio.c    **** {
 211              		.loc 1 112 0
 212              		.cfi_startproc
 213              		@ args = 0, pretend = 0, frame = 0
 214              		@ frame_needed = 0, uses_anonymous_args = 0
 215 0000 10B5     		push	{r4, lr}
 216              	.LCFI4:
 217              		.cfi_def_cfa_offset 8
 218              		.cfi_offset 4, -8
 219              		.cfi_offset 14, -4
 113:Src/gpio.c    ****   HAL_GPIO_WritePin(led0_GPIO_Port,led0_Pin,GPIO_PIN_RESET);
 220              		.loc 1 113 0
 221 0002 0C4C     		ldr	r4, .L14
 222 0004 0022     		movs	r2, #0
 223 0006 4FF40051 		mov	r1, #8192
 224 000a 2046     		mov	r0, r4
 225 000c FFF7FEFF 		bl	HAL_GPIO_WritePin
 226              	.LVL6:
 114:Src/gpio.c    ****   HAL_GPIO_WritePin(led1_GPIO_Port,led1_Pin,GPIO_PIN_RESET);
 227              		.loc 1 114 0
 228 0010 0022     		movs	r2, #0
 229 0012 4FF48041 		mov	r1, #16384
 230 0016 2046     		mov	r0, r4
 231 0018 FFF7FEFF 		bl	HAL_GPIO_WritePin
 232              	.LVL7:
ARM GAS  C:\Users\kotaro\AppData\Local\Temp\cc3cViSg.s 			page 7


 115:Src/gpio.c    ****   HAL_GPIO_WritePin(led2_GPIO_Port,led2_Pin,GPIO_PIN_RESET);
 233              		.loc 1 115 0
 234 001c 0022     		movs	r2, #0
 235 001e 8021     		movs	r1, #128
 236 0020 2046     		mov	r0, r4
 237 0022 FFF7FEFF 		bl	HAL_GPIO_WritePin
 238              	.LVL8:
 116:Src/gpio.c    ****   HAL_GPIO_WritePin(led3_GPIO_Port,led3_Pin,GPIO_PIN_RESET);
 239              		.loc 1 116 0
 240 0026 0022     		movs	r2, #0
 241 0028 4FF48071 		mov	r1, #256
 242 002c 2046     		mov	r0, r4
 243 002e FFF7FEFF 		bl	HAL_GPIO_WritePin
 244              	.LVL9:
 117:Src/gpio.c    **** }
 245              		.loc 1 117 0
 246 0032 10BD     		pop	{r4, pc}
 247              	.L15:
 248              		.align	2
 249              	.L14:
 250 0034 00080240 		.word	1073874944
 251              		.cfi_endproc
 252              	.LFE128:
 254              		.section	.text.All_LED_OFF,"ax",%progbits
 255              		.align	1
 256              		.global	All_LED_OFF
 257              		.syntax unified
 258              		.thumb
 259              		.thumb_func
 260              		.fpu fpv4-sp-d16
 262              	All_LED_OFF:
 263              	.LFB129:
 118:Src/gpio.c    **** void All_LED_OFF(void)
 119:Src/gpio.c    **** {
 264              		.loc 1 119 0
 265              		.cfi_startproc
 266              		@ args = 0, pretend = 0, frame = 0
 267              		@ frame_needed = 0, uses_anonymous_args = 0
 268 0000 10B5     		push	{r4, lr}
 269              	.LCFI5:
 270              		.cfi_def_cfa_offset 8
 271              		.cfi_offset 4, -8
 272              		.cfi_offset 14, -4
 120:Src/gpio.c    ****   HAL_GPIO_WritePin(led0_GPIO_Port,led0_Pin,GPIO_PIN_SET);
 273              		.loc 1 120 0
 274 0002 0C4C     		ldr	r4, .L18
 275 0004 0122     		movs	r2, #1
 276 0006 4FF40051 		mov	r1, #8192
 277 000a 2046     		mov	r0, r4
 278 000c FFF7FEFF 		bl	HAL_GPIO_WritePin
 279              	.LVL10:
 121:Src/gpio.c    ****   HAL_GPIO_WritePin(led1_GPIO_Port,led1_Pin,GPIO_PIN_SET);
 280              		.loc 1 121 0
 281 0010 0122     		movs	r2, #1
 282 0012 4FF48041 		mov	r1, #16384
 283 0016 2046     		mov	r0, r4
 284 0018 FFF7FEFF 		bl	HAL_GPIO_WritePin
ARM GAS  C:\Users\kotaro\AppData\Local\Temp\cc3cViSg.s 			page 8


 285              	.LVL11:
 122:Src/gpio.c    ****   HAL_GPIO_WritePin(led2_GPIO_Port,led2_Pin,GPIO_PIN_SET);
 286              		.loc 1 122 0
 287 001c 0122     		movs	r2, #1
 288 001e 8021     		movs	r1, #128
 289 0020 2046     		mov	r0, r4
 290 0022 FFF7FEFF 		bl	HAL_GPIO_WritePin
 291              	.LVL12:
 123:Src/gpio.c    ****   HAL_GPIO_WritePin(led3_GPIO_Port,led3_Pin,GPIO_PIN_SET);
 292              		.loc 1 123 0
 293 0026 0122     		movs	r2, #1
 294 0028 4FF48071 		mov	r1, #256
 295 002c 2046     		mov	r0, r4
 296 002e FFF7FEFF 		bl	HAL_GPIO_WritePin
 297              	.LVL13:
 124:Src/gpio.c    **** }
 298              		.loc 1 124 0
 299 0032 10BD     		pop	{r4, pc}
 300              	.L19:
 301              		.align	2
 302              	.L18:
 303 0034 00080240 		.word	1073874944
 304              		.cfi_endproc
 305              	.LFE129:
 307              		.section	.text.All_IR_ON,"ax",%progbits
 308              		.align	1
 309              		.global	All_IR_ON
 310              		.syntax unified
 311              		.thumb
 312              		.thumb_func
 313              		.fpu fpv4-sp-d16
 315              	All_IR_ON:
 316              	.LFB130:
 125:Src/gpio.c    **** void All_IR_ON(void){
 317              		.loc 1 125 0
 318              		.cfi_startproc
 319              		@ args = 0, pretend = 0, frame = 0
 320              		@ frame_needed = 0, uses_anonymous_args = 0
 321 0000 10B5     		push	{r4, lr}
 322              	.LCFI6:
 323              		.cfi_def_cfa_offset 8
 324              		.cfi_offset 4, -8
 325              		.cfi_offset 14, -4
 126:Src/gpio.c    ****   HAL_GPIO_WritePin(paluse0_GPIO_Port,paluse0_Pin,GPIO_PIN_SET);
 326              		.loc 1 126 0
 327 0002 0B4C     		ldr	r4, .L22
 328 0004 0122     		movs	r2, #1
 329 0006 1146     		mov	r1, r2
 330 0008 2046     		mov	r0, r4
 331 000a FFF7FEFF 		bl	HAL_GPIO_WritePin
 332              	.LVL14:
 127:Src/gpio.c    ****   HAL_GPIO_WritePin(paluse1_GPIO_Port,paluse1_Pin,GPIO_PIN_SET);
 333              		.loc 1 127 0
 334 000e 0122     		movs	r2, #1
 335 0010 0221     		movs	r1, #2
 336 0012 2046     		mov	r0, r4
 337 0014 FFF7FEFF 		bl	HAL_GPIO_WritePin
ARM GAS  C:\Users\kotaro\AppData\Local\Temp\cc3cViSg.s 			page 9


 338              	.LVL15:
 128:Src/gpio.c    ****   HAL_GPIO_WritePin(paluse2_GPIO_Port,paluse2_Pin,GPIO_PIN_SET);
 339              		.loc 1 128 0
 340 0018 0122     		movs	r2, #1
 341 001a 0421     		movs	r1, #4
 342 001c 2046     		mov	r0, r4
 343 001e FFF7FEFF 		bl	HAL_GPIO_WritePin
 344              	.LVL16:
 129:Src/gpio.c    ****   HAL_GPIO_WritePin(paluse3_GPIO_Port,paluse3_Pin,GPIO_PIN_SET);
 345              		.loc 1 129 0
 346 0022 0122     		movs	r2, #1
 347 0024 0821     		movs	r1, #8
 348 0026 2046     		mov	r0, r4
 349 0028 FFF7FEFF 		bl	HAL_GPIO_WritePin
 350              	.LVL17:
 130:Src/gpio.c    **** }
 351              		.loc 1 130 0
 352 002c 10BD     		pop	{r4, pc}
 353              	.L23:
 354 002e 00BF     		.align	2
 355              	.L22:
 356 0030 00080240 		.word	1073874944
 357              		.cfi_endproc
 358              	.LFE130:
 360              		.section	.text.All_IR_OFF,"ax",%progbits
 361              		.align	1
 362              		.global	All_IR_OFF
 363              		.syntax unified
 364              		.thumb
 365              		.thumb_func
 366              		.fpu fpv4-sp-d16
 368              	All_IR_OFF:
 369              	.LFB131:
 131:Src/gpio.c    **** void All_IR_OFF(void){
 370              		.loc 1 131 0
 371              		.cfi_startproc
 372              		@ args = 0, pretend = 0, frame = 0
 373              		@ frame_needed = 0, uses_anonymous_args = 0
 374 0000 10B5     		push	{r4, lr}
 375              	.LCFI7:
 376              		.cfi_def_cfa_offset 8
 377              		.cfi_offset 4, -8
 378              		.cfi_offset 14, -4
 132:Src/gpio.c    ****   HAL_GPIO_WritePin(paluse0_GPIO_Port,paluse0_Pin,GPIO_PIN_RESET);
 379              		.loc 1 132 0
 380 0002 0B4C     		ldr	r4, .L26
 381 0004 0022     		movs	r2, #0
 382 0006 0121     		movs	r1, #1
 383 0008 2046     		mov	r0, r4
 384 000a FFF7FEFF 		bl	HAL_GPIO_WritePin
 385              	.LVL18:
 133:Src/gpio.c    ****   HAL_GPIO_WritePin(paluse1_GPIO_Port,paluse1_Pin,GPIO_PIN_RESET);
 386              		.loc 1 133 0
 387 000e 0022     		movs	r2, #0
 388 0010 0221     		movs	r1, #2
 389 0012 2046     		mov	r0, r4
 390 0014 FFF7FEFF 		bl	HAL_GPIO_WritePin
ARM GAS  C:\Users\kotaro\AppData\Local\Temp\cc3cViSg.s 			page 10


 391              	.LVL19:
 134:Src/gpio.c    ****   HAL_GPIO_WritePin(paluse2_GPIO_Port,paluse2_Pin,GPIO_PIN_RESET);
 392              		.loc 1 134 0
 393 0018 0022     		movs	r2, #0
 394 001a 0421     		movs	r1, #4
 395 001c 2046     		mov	r0, r4
 396 001e FFF7FEFF 		bl	HAL_GPIO_WritePin
 397              	.LVL20:
 135:Src/gpio.c    ****   HAL_GPIO_WritePin(paluse3_GPIO_Port,paluse3_Pin,GPIO_PIN_RESET);
 398              		.loc 1 135 0
 399 0022 0022     		movs	r2, #0
 400 0024 0821     		movs	r1, #8
 401 0026 2046     		mov	r0, r4
 402 0028 FFF7FEFF 		bl	HAL_GPIO_WritePin
 403              	.LVL21:
 136:Src/gpio.c    **** }
 404              		.loc 1 136 0
 405 002c 10BD     		pop	{r4, pc}
 406              	.L27:
 407 002e 00BF     		.align	2
 408              	.L26:
 409 0030 00080240 		.word	1073874944
 410              		.cfi_endproc
 411              	.LFE131:
 413              		.section	.text.IR_Contoroll,"ax",%progbits
 414              		.align	1
 415              		.global	IR_Contoroll
 416              		.syntax unified
 417              		.thumb
 418              		.thumb_func
 419              		.fpu fpv4-sp-d16
 421              	IR_Contoroll:
 422              	.LFB132:
 137:Src/gpio.c    **** void IR_Contoroll(int pattern){
 423              		.loc 1 137 0
 424              		.cfi_startproc
 425              		@ args = 0, pretend = 0, frame = 0
 426              		@ frame_needed = 0, uses_anonymous_args = 0
 427              	.LVL22:
 428 0000 10B5     		push	{r4, lr}
 429              	.LCFI8:
 430              		.cfi_def_cfa_offset 8
 431              		.cfi_offset 4, -8
 432              		.cfi_offset 14, -4
 433 0002 0446     		mov	r4, r0
 138:Src/gpio.c    ****   if((pattern & 0b0001) == 0b0001) HAL_GPIO_WritePin(paluse0_GPIO_Port,paluse0_Pin,GPIO_PIN_SET);
 434              		.loc 1 138 0
 435 0004 10F0010F 		tst	r0, #1
 436 0008 1DD0     		beq	.L29
 437              		.loc 1 138 0 is_stmt 0 discriminator 1
 438 000a 0122     		movs	r2, #1
 439 000c 1146     		mov	r1, r2
 440 000e 1A48     		ldr	r0, .L39
 441              	.LVL23:
 442 0010 FFF7FEFF 		bl	HAL_GPIO_WritePin
 443              	.LVL24:
 444              	.L30:
ARM GAS  C:\Users\kotaro\AppData\Local\Temp\cc3cViSg.s 			page 11


 139:Src/gpio.c    ****   else                             HAL_GPIO_WritePin(paluse0_GPIO_Port,paluse0_Pin,GPIO_PIN_RESET);
 140:Src/gpio.c    ****   if((pattern & 0b0010) == 0b0010) HAL_GPIO_WritePin(paluse1_GPIO_Port,paluse1_Pin,GPIO_PIN_SET);
 445              		.loc 1 140 0 is_stmt 1
 446 0014 14F0020F 		tst	r4, #2
 447 0018 1BD0     		beq	.L31
 448              		.loc 1 140 0 is_stmt 0 discriminator 1
 449 001a 0122     		movs	r2, #1
 450 001c 0221     		movs	r1, #2
 451 001e 1648     		ldr	r0, .L39
 452 0020 FFF7FEFF 		bl	HAL_GPIO_WritePin
 453              	.LVL25:
 454              	.L32:
 141:Src/gpio.c    ****   else                             HAL_GPIO_WritePin(paluse1_GPIO_Port,paluse1_Pin,GPIO_PIN_RESET);
 142:Src/gpio.c    ****   if((pattern & 0b0100) == 0b0100) HAL_GPIO_WritePin(paluse2_GPIO_Port,paluse2_Pin,GPIO_PIN_SET);
 455              		.loc 1 142 0 is_stmt 1
 456 0024 14F0040F 		tst	r4, #4
 457 0028 19D0     		beq	.L33
 458              		.loc 1 142 0 is_stmt 0 discriminator 1
 459 002a 0122     		movs	r2, #1
 460 002c 0421     		movs	r1, #4
 461 002e 1248     		ldr	r0, .L39
 462 0030 FFF7FEFF 		bl	HAL_GPIO_WritePin
 463              	.LVL26:
 464              	.L34:
 143:Src/gpio.c    ****   else                             HAL_GPIO_WritePin(paluse2_GPIO_Port,paluse2_Pin,GPIO_PIN_RESET);
 144:Src/gpio.c    ****   if((pattern & 0b1000) == 0b1000) HAL_GPIO_WritePin(paluse3_GPIO_Port,paluse3_Pin,GPIO_PIN_SET);
 465              		.loc 1 144 0 is_stmt 1
 466 0034 14F0080F 		tst	r4, #8
 467 0038 17D1     		bne	.L38
 145:Src/gpio.c    ****   else                             HAL_GPIO_WritePin(paluse3_GPIO_Port,paluse3_Pin,GPIO_PIN_RESET);
 468              		.loc 1 145 0
 469 003a 0022     		movs	r2, #0
 470 003c 0821     		movs	r1, #8
 471 003e 0E48     		ldr	r0, .L39
 472 0040 FFF7FEFF 		bl	HAL_GPIO_WritePin
 473              	.LVL27:
 474              	.L28:
 146:Src/gpio.c    **** }
 475              		.loc 1 146 0
 476 0044 10BD     		pop	{r4, pc}
 477              	.LVL28:
 478              	.L29:
 139:Src/gpio.c    ****   if((pattern & 0b0010) == 0b0010) HAL_GPIO_WritePin(paluse1_GPIO_Port,paluse1_Pin,GPIO_PIN_SET);
 479              		.loc 1 139 0
 480 0046 0022     		movs	r2, #0
 481 0048 0121     		movs	r1, #1
 482 004a 0B48     		ldr	r0, .L39
 483              	.LVL29:
 484 004c FFF7FEFF 		bl	HAL_GPIO_WritePin
 485              	.LVL30:
 486 0050 E0E7     		b	.L30
 487              	.L31:
 141:Src/gpio.c    ****   if((pattern & 0b0100) == 0b0100) HAL_GPIO_WritePin(paluse2_GPIO_Port,paluse2_Pin,GPIO_PIN_SET);
 488              		.loc 1 141 0
 489 0052 0022     		movs	r2, #0
 490 0054 0221     		movs	r1, #2
 491 0056 0848     		ldr	r0, .L39
ARM GAS  C:\Users\kotaro\AppData\Local\Temp\cc3cViSg.s 			page 12


 492 0058 FFF7FEFF 		bl	HAL_GPIO_WritePin
 493              	.LVL31:
 494 005c E2E7     		b	.L32
 495              	.L33:
 143:Src/gpio.c    ****   if((pattern & 0b1000) == 0b1000) HAL_GPIO_WritePin(paluse3_GPIO_Port,paluse3_Pin,GPIO_PIN_SET);
 496              		.loc 1 143 0
 497 005e 0022     		movs	r2, #0
 498 0060 0421     		movs	r1, #4
 499 0062 0548     		ldr	r0, .L39
 500 0064 FFF7FEFF 		bl	HAL_GPIO_WritePin
 501              	.LVL32:
 502 0068 E4E7     		b	.L34
 503              	.L38:
 144:Src/gpio.c    ****   else                             HAL_GPIO_WritePin(paluse3_GPIO_Port,paluse3_Pin,GPIO_PIN_RESET);
 504              		.loc 1 144 0 discriminator 1
 505 006a 0122     		movs	r2, #1
 506 006c 0821     		movs	r1, #8
 507 006e 0248     		ldr	r0, .L39
 508 0070 FFF7FEFF 		bl	HAL_GPIO_WritePin
 509              	.LVL33:
 510 0074 E6E7     		b	.L28
 511              	.L40:
 512 0076 00BF     		.align	2
 513              	.L39:
 514 0078 00080240 		.word	1073874944
 515              		.cfi_endproc
 516              	.LFE132:
 518              		.text
 519              	.Letext0:
 520              		.file 2 "c:\\program files (x86)\\gnu tools arm embedded\\7 2017-q4-major\\arm-none-eabi\\include\
 521              		.file 3 "c:\\program files (x86)\\gnu tools arm embedded\\7 2017-q4-major\\arm-none-eabi\\include\
 522              		.file 4 "Drivers/CMSIS/Include/core_cm4.h"
 523              		.file 5 "Drivers/CMSIS/Device/ST/STM32F4xx/Include/system_stm32f4xx.h"
 524              		.file 6 "Drivers/CMSIS/Device/ST/STM32F4xx/Include/stm32f405xx.h"
 525              		.file 7 "c:\\program files (x86)\\gnu tools arm embedded\\7 2017-q4-major\\arm-none-eabi\\include\
 526              		.file 8 "c:\\program files (x86)\\gnu tools arm embedded\\7 2017-q4-major\\arm-none-eabi\\include\
 527              		.file 9 "c:\\program files (x86)\\gnu tools arm embedded\\7 2017-q4-major\\lib\\gcc\\arm-none-eabi
 528              		.file 10 "c:\\program files (x86)\\gnu tools arm embedded\\7 2017-q4-major\\arm-none-eabi\\include
 529              		.file 11 "Drivers/STM32F4xx_HAL_Driver/Inc/stm32f4xx_hal_gpio.h"
ARM GAS  C:\Users\kotaro\AppData\Local\Temp\cc3cViSg.s 			page 13

