ARM GAS  C:\Users\kotaro\AppData\Local\Temp\ccaEAuGP.s 			page 1


   1              		.cpu cortex-m4
   2              		.eabi_attribute 27, 1
   3              		.eabi_attribute 28, 1
   4              		.eabi_attribute 20, 1
   5              		.eabi_attribute 21, 1
   6              		.eabi_attribute 23, 3
   7              		.eabi_attribute 24, 1
   8              		.eabi_attribute 25, 1
   9              		.eabi_attribute 26, 1
  10              		.eabi_attribute 30, 1
  11              		.eabi_attribute 34, 1
  12              		.eabi_attribute 18, 4
  13              		.file	"maze.c"
  14              		.text
  15              	.Ltext0:
  16              		.cfi_sections	.debug_frame
  17              		.section	.text.Maze_Set,"ax",%progbits
  18              		.align	1
  19              		.global	Maze_Set
  20              		.syntax unified
  21              		.thumb
  22              		.thumb_func
  23              		.fpu fpv4-sp-d16
  25              	Maze_Set:
  26              	.LFB126:
  27              		.file 1 "Src/maze.c"
   1:Src/maze.c    **** #include "maze.h"
   2:Src/maze.c    **** #include "gpio.h"
   3:Src/maze.c    **** #include "global.h"
   4:Src/maze.c    **** 
   5:Src/maze.c    **** 
   6:Src/maze.c    **** /**************variable**********************/
   7:Src/maze.c    **** mazeDef_t mazeDef;
   8:Src/maze.c    **** maze_t maze;
   9:Src/maze.c    **** 
  10:Src/maze.c    **** 
  11:Src/maze.c    **** 
  12:Src/maze.c    **** /**************************************************************************************************
  13:Src/maze.c    ****  * outline : input maze size , goal point
  14:Src/maze.c    ****  * argument : void
  15:Src/maze.c    ****  * return : void
  16:Src/maze.c    **** ***************************************************************************************************
  17:Src/maze.c    **** void Maze_Set(void){
  28              		.loc 1 17 0
  29              		.cfi_startproc
  30              		@ args = 0, pretend = 0, frame = 0
  31              		@ frame_needed = 0, uses_anonymous_args = 0
  32              		@ link register save eliminated.
  18:Src/maze.c    ****     mazeDef.maze_goal_x = 1;
  33              		.loc 1 18 0
  34 0000 024B     		ldr	r3, .L2
  35 0002 0122     		movs	r2, #1
  36 0004 1A70     		strb	r2, [r3]
  19:Src/maze.c    ****     mazeDef.maze_goal_y = 0;
  37              		.loc 1 19 0
  38 0006 0022     		movs	r2, #0
  39 0008 5A70     		strb	r2, [r3, #1]
ARM GAS  C:\Users\kotaro\AppData\Local\Temp\ccaEAuGP.s 			page 2


  20:Src/maze.c    **** }
  40              		.loc 1 20 0
  41 000a 7047     		bx	lr
  42              	.L3:
  43              		.align	2
  44              	.L2:
  45 000c 00000000 		.word	mazeDef
  46              		.cfi_endproc
  47              	.LFE126:
  49              		.section	.text.Init_maze,"ax",%progbits
  50              		.align	1
  51              		.global	Init_maze
  52              		.syntax unified
  53              		.thumb
  54              		.thumb_func
  55              		.fpu fpv4-sp-d16
  57              	Init_maze:
  58              	.LFB127:
  21:Src/maze.c    **** 
  22:Src/maze.c    **** /**************************************************************************************************
  23:Src/maze.c    ****  * outline : initialize maze date
  24:Src/maze.c    ****  * argument : void
  25:Src/maze.c    ****  * return : void
  26:Src/maze.c    **** ***************************************************************************************************
  27:Src/maze.c    **** void Init_maze(void) {
  59              		.loc 1 27 0
  60              		.cfi_startproc
  61              		@ args = 0, pretend = 0, frame = 0
  62              		@ frame_needed = 0, uses_anonymous_args = 0
  63              		@ link register save eliminated.
  64              	.LVL0:
  65              	.LBB2:
  28:Src/maze.c    **** 	//init wall and is_search
  29:Src/maze.c    **** 	for (int i = 0; i <= MAZE_SIZE; i++)
  66              		.loc 1 29 0
  67 0000 0020     		movs	r0, #0
  68 0002 14E0     		b	.L5
  69              	.LVL1:
  70              	.L6:
  71              	.LBB3:
  30:Src/maze.c    **** 	{
  31:Src/maze.c    **** 		for (int j = 0; j <= MAZE_SIZE; j++)
  32:Src/maze.c    **** 		{
  33:Src/maze.c    **** 			maze.wall_east[i][j] = 0;
  72              		.loc 1 33 0 discriminator 3
  73 0004 194B     		ldr	r3, .L12
  74 0006 03EB0013 		add	r3, r3, r0, lsl #4
  75 000a 0B44     		add	r3, r3, r1
  76 000c 0022     		movs	r2, #0
  77 000e 83F80023 		strb	r2, [r3, #768]
  34:Src/maze.c    **** 			maze.wall_north[i][j] = 0;
  78              		.loc 1 34 0 discriminator 3
  79 0012 83F80022 		strb	r2, [r3, #512]
  35:Src/maze.c    **** 			maze.wall_south[i][j] = 0;
  80              		.loc 1 35 0 discriminator 3
  81 0016 83F80024 		strb	r2, [r3, #1024]
  36:Src/maze.c    **** 			maze.wall_west[i][j] = 0;
ARM GAS  C:\Users\kotaro\AppData\Local\Temp\ccaEAuGP.s 			page 3


  82              		.loc 1 36 0 discriminator 3
  83 001a 83F80025 		strb	r2, [r3, #1280]
  37:Src/maze.c    **** 			maze.is_search[i][j] = 0;
  84              		.loc 1 37 0 discriminator 3
  85 001e 83F80026 		strb	r2, [r3, #1536]
  38:Src/maze.c    **** 			maze.goal[i][j] = 0;
  86              		.loc 1 38 0 discriminator 3
  87 0022 83F80021 		strb	r2, [r3, #256]
  31:Src/maze.c    **** 		{
  88              		.loc 1 31 0 discriminator 3
  89 0026 0131     		adds	r1, r1, #1
  90              	.LVL2:
  91              	.L7:
  31:Src/maze.c    **** 		{
  92              		.loc 1 31 0 is_stmt 0 discriminator 1
  93 0028 0F29     		cmp	r1, #15
  94 002a EBDD     		ble	.L6
  95              	.LBE3:
  29:Src/maze.c    **** 	{
  96              		.loc 1 29 0 is_stmt 1 discriminator 2
  97 002c 0130     		adds	r0, r0, #1
  98              	.LVL3:
  99              	.L5:
  29:Src/maze.c    **** 	{
 100              		.loc 1 29 0 is_stmt 0 discriminator 1
 101 002e 0F28     		cmp	r0, #15
 102 0030 01DC     		bgt	.L11
 103              	.LBB4:
  31:Src/maze.c    **** 		{
 104              		.loc 1 31 0 is_stmt 1
 105 0032 0021     		movs	r1, #0
 106 0034 F8E7     		b	.L7
 107              	.L11:
 108              	.LBE4:
 109              	.LBE2:
  39:Src/maze.c    **** 		}
  40:Src/maze.c    **** 	}
  41:Src/maze.c    **** 	//input start wall
  42:Src/maze.c    **** 	maze.wall_east[0][0] = 1;
 110              		.loc 1 42 0
 111 0036 0D4B     		ldr	r3, .L12
 112 0038 0122     		movs	r2, #1
 113 003a 83F80023 		strb	r2, [r3, #768]
  43:Src/maze.c    **** 	maze.wall_west[1][0] = 1;
 114              		.loc 1 43 0
 115 003e 83F81025 		strb	r2, [r3, #1296]
 116              	.LVL4:
 117              	.LBB5:
  44:Src/maze.c    **** 	//input outer
  45:Src/maze.c    **** 	for (int i = 0; i <= MAZE_SIZE; i++)
 118              		.loc 1 45 0
 119 0042 0023     		movs	r3, #0
 120 0044 0FE0     		b	.L8
 121              	.LVL5:
 122              	.L9:
  46:Src/maze.c    **** 	{
  47:Src/maze.c    **** 		maze.wall_east[MAZE_SIZE][i] = 1;
ARM GAS  C:\Users\kotaro\AppData\Local\Temp\ccaEAuGP.s 			page 4


 123              		.loc 1 47 0 discriminator 3
 124 0046 094A     		ldr	r2, .L12
 125 0048 D018     		adds	r0, r2, r3
 126 004a 0121     		movs	r1, #1
 127 004c 80F8F013 		strb	r1, [r0, #1008]
  48:Src/maze.c    **** 		maze.wall_west[0][i] = 1;
 128              		.loc 1 48 0 discriminator 3
 129 0050 80F80015 		strb	r1, [r0, #1280]
  49:Src/maze.c    ****         maze.wall_south[i][0] = 1;
 130              		.loc 1 49 0 discriminator 3
 131 0054 03F14000 		add	r0, r3, #64
 132 0058 0001     		lsls	r0, r0, #4
 133 005a 1154     		strb	r1, [r2, r0]
  50:Src/maze.c    **** 		maze.wall_north[i][MAZE_SIZE] = 1;
 134              		.loc 1 50 0 discriminator 3
 135 005c 02EB0312 		add	r2, r2, r3, lsl #4
 136 0060 82F80F12 		strb	r1, [r2, #527]
  45:Src/maze.c    **** 	{
 137              		.loc 1 45 0 discriminator 3
 138 0064 0B44     		add	r3, r3, r1
 139              	.LVL6:
 140              	.L8:
  45:Src/maze.c    **** 	{
 141              		.loc 1 45 0 is_stmt 0 discriminator 1
 142 0066 0F2B     		cmp	r3, #15
 143 0068 EDDD     		ble	.L9
 144              	.LBE5:
  51:Src/maze.c    **** 	}
  52:Src/maze.c    **** }
 145              		.loc 1 52 0 is_stmt 1
 146 006a 7047     		bx	lr
 147              	.L13:
 148              		.align	2
 149              	.L12:
 150 006c 00000000 		.word	maze
 151              		.cfi_endproc
 152              	.LFE127:
 154              		.section	.text.MAZE_Create_Step,"ax",%progbits
 155              		.align	1
 156              		.global	MAZE_Create_Step
 157              		.syntax unified
 158              		.thumb
 159              		.thumb_func
 160              		.fpu fpv4-sp-d16
 162              	MAZE_Create_Step:
 163              	.LFB128:
  53:Src/maze.c    **** 
  54:Src/maze.c    **** 
  55:Src/maze.c    **** /**************************************************************************************************
  56:Src/maze.c    ****  * outline : create map
  57:Src/maze.c    ****  * argument : void
  58:Src/maze.c    ****  * return : void
  59:Src/maze.c    **** ***************************************************************************************************
  60:Src/maze.c    **** void MAZE_Create_Step( void ){
 164              		.loc 1 60 0
 165              		.cfi_startproc
 166              		@ args = 0, pretend = 0, frame = 8
ARM GAS  C:\Users\kotaro\AppData\Local\Temp\ccaEAuGP.s 			page 5


 167              		@ frame_needed = 0, uses_anonymous_args = 0
 168              		@ link register save eliminated.
 169 0000 70B4     		push	{r4, r5, r6}
 170              	.LCFI0:
 171              		.cfi_def_cfa_offset 12
 172              		.cfi_offset 4, -12
 173              		.cfi_offset 5, -8
 174              		.cfi_offset 6, -4
 175 0002 83B0     		sub	sp, sp, #12
 176              	.LCFI1:
 177              		.cfi_def_cfa_offset 24
 178              	.LVL7:
 179              	.LBB6:
  61:Src/maze.c    **** 	/* <概要>   : 歩数マップ作成
  62:Src/maze.c    **** 	 * <引数>   : 走行の状態( 探索,最短 )
  63:Src/maze.c    **** 	 * <戻り値> : なし
  64:Src/maze.c    **** 	 */
  65:Src/maze.c    **** 	// 初期化
  66:Src/maze.c    **** 	for( int i = 0; i <= MAZE_SIZE; i++ ){
 180              		.loc 1 66 0
 181 0004 0021     		movs	r1, #0
 182 0006 16E0     		b	.L15
 183              	.LVL8:
 184              	.L16:
 185              	.LBB7:
  67:Src/maze.c    **** 		for( int j = 0; j <= MAZE_SIZE; j++ ){
  68:Src/maze.c    **** 			if( i == mazeDef.maze_goal_x && j == mazeDef.maze_goal_y ){
  69:Src/maze.c    **** 				maze.step[i][j] = 0;
  70:Src/maze.c    **** 			}
  71:Src/maze.c    **** 			else{
  72:Src/maze.c    **** 				maze.step[i][j] = MAX_STEP;
 186              		.loc 1 72 0
 187 0008 544A     		ldr	r2, .L42
 188 000a 02EB0112 		add	r2, r2, r1, lsl #4
 189 000e FE20     		movs	r0, #254
 190 0010 D054     		strb	r0, [r2, r3]
 191              	.L17:
  67:Src/maze.c    **** 		for( int j = 0; j <= MAZE_SIZE; j++ ){
 192              		.loc 1 67 0 discriminator 2
 193 0012 0133     		adds	r3, r3, #1
 194              	.LVL9:
 195              	.L19:
  67:Src/maze.c    **** 		for( int j = 0; j <= MAZE_SIZE; j++ ){
 196              		.loc 1 67 0 is_stmt 0 discriminator 1
 197 0014 0F2B     		cmp	r3, #15
 198 0016 0DDC     		bgt	.L33
  68:Src/maze.c    **** 				maze.step[i][j] = 0;
 199              		.loc 1 68 0 is_stmt 1
 200 0018 514A     		ldr	r2, .L42+4
 201 001a 1278     		ldrb	r2, [r2]	@ zero_extendqisi2
 202 001c 8A42     		cmp	r2, r1
 203 001e F3D1     		bne	.L16
  68:Src/maze.c    **** 				maze.step[i][j] = 0;
 204              		.loc 1 68 0 is_stmt 0 discriminator 1
 205 0020 4F4A     		ldr	r2, .L42+4
 206 0022 5278     		ldrb	r2, [r2, #1]	@ zero_extendqisi2
 207 0024 9A42     		cmp	r2, r3
ARM GAS  C:\Users\kotaro\AppData\Local\Temp\ccaEAuGP.s 			page 6


 208 0026 EFD1     		bne	.L16
  69:Src/maze.c    **** 			}
 209              		.loc 1 69 0 is_stmt 1
 210 0028 4C4A     		ldr	r2, .L42
 211 002a 02EB0112 		add	r2, r2, r1, lsl #4
 212 002e 0020     		movs	r0, #0
 213 0030 D054     		strb	r0, [r2, r3]
 214 0032 EEE7     		b	.L17
 215              	.L33:
 216              	.LBE7:
  66:Src/maze.c    **** 		for( int j = 0; j <= MAZE_SIZE; j++ ){
 217              		.loc 1 66 0 discriminator 2
 218 0034 0131     		adds	r1, r1, #1
 219              	.LVL10:
 220              	.L15:
  66:Src/maze.c    **** 		for( int j = 0; j <= MAZE_SIZE; j++ ){
 221              		.loc 1 66 0 is_stmt 0 discriminator 1
 222 0036 0F29     		cmp	r1, #15
 223 0038 01DC     		bgt	.L34
 224              	.LBB8:
  67:Src/maze.c    **** 			if( i == mazeDef.maze_goal_x && j == mazeDef.maze_goal_y ){
 225              		.loc 1 67 0 is_stmt 1
 226 003a 0023     		movs	r3, #0
 227 003c EAE7     		b	.L19
 228              	.L34:
 229              	.LBE8:
 230              	.LBE6:
  73:Src/maze.c    **** 			}
  74:Src/maze.c    **** 		}
  75:Src/maze.c    **** 	}
  76:Src/maze.c    **** 
  77:Src/maze.c    **** 	volatile uint8_t end_flag = true;	// 終了フラグ
 231              		.loc 1 77 0
 232 003e 0123     		movs	r3, #1
 233 0040 8DF80730 		strb	r3, [sp, #7]
 234              	.LVL11:
  78:Src/maze.c    **** 	uint8_t stepNum = 0;		// 設定中の歩数
 235              		.loc 1 78 0
 236 0044 0025     		movs	r5, #0
  79:Src/maze.c    **** 	// 探索
  80:Src/maze.c    **** 	
  81:Src/maze.c    **** 	while( end_flag == true ){
 237              		.loc 1 81 0
 238 0046 79E0     		b	.L20
 239              	.LVL12:
 240              	.L38:
 241              	.LBB9:
 242              	.LBB10:
  82:Src/maze.c    **** 		end_flag = false;
  83:Src/maze.c    **** 		uint8_t i=0;
  84:Src/maze.c    **** 		for( i = 0; i <= MAZE_SIZE; i++ ){
  85:Src/maze.c    **** 			uint8_t j=0;
  86:Src/maze.c    **** 			for( j = 0; j <= MAZE_SIZE; j++ ){
  87:Src/maze.c    **** 				if( maze.step[i][j] == MAX_STEP ){
  88:Src/maze.c    **** 					if( j < MAZE_SIZE){	//北壁
  89:Src/maze.c    **** 						if( (maze.wall_north[i][j] == false)&&(maze.step[i][j+1] == stepNum) ){
  90:Src/maze.c    **** 							maze.step[i][j] = stepNum + 1;
ARM GAS  C:\Users\kotaro\AppData\Local\Temp\ccaEAuGP.s 			page 7


 243              		.loc 1 90 0
 244 0048 6E1C     		adds	r6, r5, #1
 245 004a 444A     		ldr	r2, .L42
 246 004c 02EB0412 		add	r2, r2, r4, lsl #4
 247 0050 D654     		strb	r6, [r2, r3]
  91:Src/maze.c    **** 							end_flag = true;
 248              		.loc 1 91 0
 249 0052 0122     		movs	r2, #1
 250 0054 8DF80720 		strb	r2, [sp, #7]
 251 0058 39E0     		b	.L23
 252              	.L24:
  92:Src/maze.c    **** 						}
  93:Src/maze.c    **** 					}
  94:Src/maze.c    **** 					if( i < MAZE_SIZE){	//東壁
  95:Src/maze.c    **** 						if( (maze.wall_east[i][j] == false)&&(maze.step[i+1][j] == stepNum) ){
  96:Src/maze.c    **** 							maze.step[i][j] = stepNum + 1;
  97:Src/maze.c    **** 							end_flag = true;
  98:Src/maze.c    **** 						}
  99:Src/maze.c    **** 					}
 100:Src/maze.c    **** 					if( j > 0 ) {					//南壁
 253              		.loc 1 100 0
 254 005a 6BB1     		cbz	r3, .L25
 101:Src/maze.c    **** 						if( (maze.wall_south[i][j] == false)&&(maze.step[i][j-1] == stepNum) ){
 255              		.loc 1 101 0
 256 005c 3F4A     		ldr	r2, .L42
 257 005e 02EB0012 		add	r2, r2, r0, lsl #4
 258 0062 0A44     		add	r2, r2, r1
 259 0064 92F80024 		ldrb	r2, [r2, #1024]	@ zero_extendqisi2
 260 0068 32B9     		cbnz	r2, .L25
 261              		.loc 1 101 0 is_stmt 0 discriminator 1
 262 006a 4A1E     		subs	r2, r1, #1
 263 006c 3B4E     		ldr	r6, .L42
 264 006e 06EB0016 		add	r6, r6, r0, lsl #4
 265 0072 B25C     		ldrb	r2, [r6, r2]	@ zero_extendqisi2
 266 0074 AA42     		cmp	r2, r5
 267 0076 44D0     		beq	.L35
 268              	.L25:
 102:Src/maze.c    **** 							maze.step[i][j] = stepNum + 1;
 103:Src/maze.c    **** 							end_flag = true;
 104:Src/maze.c    **** 						}
 105:Src/maze.c    **** 					}
 106:Src/maze.c    **** 					if( i > 0 ){					//西壁
 269              		.loc 1 106 0 is_stmt 1
 270 0078 6CB1     		cbz	r4, .L22
 107:Src/maze.c    **** 						if( (maze.wall_west[i][j] == false)&&(maze.step[i-1][j] == stepNum) ){
 271              		.loc 1 107 0
 272 007a 384A     		ldr	r2, .L42
 273 007c 02EB0012 		add	r2, r2, r0, lsl #4
 274 0080 0A44     		add	r2, r2, r1
 275 0082 92F80025 		ldrb	r2, [r2, #1280]	@ zero_extendqisi2
 276 0086 32B9     		cbnz	r2, .L22
 277              		.loc 1 107 0 is_stmt 0 discriminator 1
 278 0088 421E     		subs	r2, r0, #1
 279 008a 344E     		ldr	r6, .L42
 280 008c 06EB0212 		add	r2, r6, r2, lsl #4
 281 0090 525C     		ldrb	r2, [r2, r1]	@ zero_extendqisi2
 282 0092 AA42     		cmp	r2, r5
ARM GAS  C:\Users\kotaro\AppData\Local\Temp\ccaEAuGP.s 			page 8


 283 0094 3ED0     		beq	.L36
 284              	.L22:
  86:Src/maze.c    **** 				if( maze.step[i][j] == MAX_STEP ){
 285              		.loc 1 86 0 is_stmt 1 discriminator 2
 286 0096 0133     		adds	r3, r3, #1
 287              	.LVL13:
 288 0098 DBB2     		uxtb	r3, r3
 289              	.LVL14:
 290              	.L27:
  86:Src/maze.c    **** 				if( maze.step[i][j] == MAX_STEP ){
 291              		.loc 1 86 0 is_stmt 0 discriminator 1
 292 009a 0F2B     		cmp	r3, #15
 293 009c 43D8     		bhi	.L37
  87:Src/maze.c    **** 					if( j < MAZE_SIZE){	//北壁
 294              		.loc 1 87 0 is_stmt 1
 295 009e 2046     		mov	r0, r4
 296 00a0 1946     		mov	r1, r3
 297 00a2 2E4A     		ldr	r2, .L42
 298 00a4 02EB0412 		add	r2, r2, r4, lsl #4
 299 00a8 D25C     		ldrb	r2, [r2, r3]	@ zero_extendqisi2
 300 00aa FE2A     		cmp	r2, #254
 301 00ac F3D1     		bne	.L22
  88:Src/maze.c    **** 						if( (maze.wall_north[i][j] == false)&&(maze.step[i][j+1] == stepNum) ){
 302              		.loc 1 88 0
 303 00ae 0E2B     		cmp	r3, #14
 304 00b0 0DD8     		bhi	.L23
  89:Src/maze.c    **** 							maze.step[i][j] = stepNum + 1;
 305              		.loc 1 89 0
 306 00b2 2A4A     		ldr	r2, .L42
 307 00b4 02EB0412 		add	r2, r2, r4, lsl #4
 308 00b8 1A44     		add	r2, r2, r3
 309 00ba 92F80022 		ldrb	r2, [r2, #512]	@ zero_extendqisi2
 310 00be 32B9     		cbnz	r2, .L23
  89:Src/maze.c    **** 							maze.step[i][j] = stepNum + 1;
 311              		.loc 1 89 0 is_stmt 0 discriminator 1
 312 00c0 5A1C     		adds	r2, r3, #1
 313 00c2 264E     		ldr	r6, .L42
 314 00c4 06EB0416 		add	r6, r6, r4, lsl #4
 315 00c8 B25C     		ldrb	r2, [r6, r2]	@ zero_extendqisi2
 316 00ca AA42     		cmp	r2, r5
 317 00cc BCD0     		beq	.L38
 318              	.L23:
  94:Src/maze.c    **** 						if( (maze.wall_east[i][j] == false)&&(maze.step[i+1][j] == stepNum) ){
 319              		.loc 1 94 0 is_stmt 1
 320 00ce 0E2C     		cmp	r4, #14
 321 00d0 C3D8     		bhi	.L24
  95:Src/maze.c    **** 							maze.step[i][j] = stepNum + 1;
 322              		.loc 1 95 0
 323 00d2 224A     		ldr	r2, .L42
 324 00d4 02EB0012 		add	r2, r2, r0, lsl #4
 325 00d8 0A44     		add	r2, r2, r1
 326 00da 92F80023 		ldrb	r2, [r2, #768]	@ zero_extendqisi2
 327 00de 002A     		cmp	r2, #0
 328 00e0 BBD1     		bne	.L24
  95:Src/maze.c    **** 							maze.step[i][j] = stepNum + 1;
 329              		.loc 1 95 0 is_stmt 0 discriminator 1
 330 00e2 421C     		adds	r2, r0, #1
ARM GAS  C:\Users\kotaro\AppData\Local\Temp\ccaEAuGP.s 			page 9


 331 00e4 1D4E     		ldr	r6, .L42
 332 00e6 06EB0212 		add	r2, r6, r2, lsl #4
 333 00ea 525C     		ldrb	r2, [r2, r1]	@ zero_extendqisi2
 334 00ec AA42     		cmp	r2, r5
 335 00ee B4D1     		bne	.L24
  96:Src/maze.c    **** 							end_flag = true;
 336              		.loc 1 96 0 is_stmt 1
 337 00f0 6E1C     		adds	r6, r5, #1
 338 00f2 1A4A     		ldr	r2, .L42
 339 00f4 02EB0012 		add	r2, r2, r0, lsl #4
 340 00f8 5654     		strb	r6, [r2, r1]
  97:Src/maze.c    **** 						}
 341              		.loc 1 97 0
 342 00fa 0122     		movs	r2, #1
 343 00fc 8DF80720 		strb	r2, [sp, #7]
 344 0100 ABE7     		b	.L24
 345              	.L35:
 102:Src/maze.c    **** 							end_flag = true;
 346              		.loc 1 102 0
 347 0102 6E1C     		adds	r6, r5, #1
 348 0104 154A     		ldr	r2, .L42
 349 0106 02EB0012 		add	r2, r2, r0, lsl #4
 350 010a 5654     		strb	r6, [r2, r1]
 103:Src/maze.c    **** 						}
 351              		.loc 1 103 0
 352 010c 0122     		movs	r2, #1
 353 010e 8DF80720 		strb	r2, [sp, #7]
 354 0112 B1E7     		b	.L25
 355              	.L36:
 108:Src/maze.c    **** 							maze.step[i][j] = stepNum + 1;
 356              		.loc 1 108 0
 357 0114 6E1C     		adds	r6, r5, #1
 358 0116 114A     		ldr	r2, .L42
 359 0118 02EB0010 		add	r0, r2, r0, lsl #4
 360 011c 4654     		strb	r6, [r0, r1]
 109:Src/maze.c    **** 							end_flag = true;
 361              		.loc 1 109 0
 362 011e 0122     		movs	r2, #1
 363 0120 8DF80720 		strb	r2, [sp, #7]
 364 0124 B7E7     		b	.L22
 365              	.L37:
 366              	.LBE10:
  84:Src/maze.c    **** 			uint8_t j=0;
 367              		.loc 1 84 0 discriminator 2
 368 0126 0134     		adds	r4, r4, #1
 369              	.LVL15:
 370 0128 E4B2     		uxtb	r4, r4
 371              	.LVL16:
 372              	.L21:
  84:Src/maze.c    **** 			uint8_t j=0;
 373              		.loc 1 84 0 is_stmt 0 discriminator 1
 374 012a 0F2C     		cmp	r4, #15
 375 012c 01D8     		bhi	.L39
 376              	.LBB11:
  86:Src/maze.c    **** 				if( maze.step[i][j] == MAX_STEP ){
 377              		.loc 1 86 0 is_stmt 1
 378 012e 0023     		movs	r3, #0
ARM GAS  C:\Users\kotaro\AppData\Local\Temp\ccaEAuGP.s 			page 10


 379 0130 B3E7     		b	.L27
 380              	.L39:
 381              	.LBE11:
 110:Src/maze.c    **** 						}
 111:Src/maze.c    **** 					}
 112:Src/maze.c    **** 				}
 113:Src/maze.c    **** 			}
 114:Src/maze.c    **** 		}
 115:Src/maze.c    **** 		if (end_flag == true) {
 382              		.loc 1 115 0
 383 0132 9DF80730 		ldrb	r3, [sp, #7]	@ zero_extendqisi2
 384 0136 DBB2     		uxtb	r3, r3
 385 0138 012B     		cmp	r3, #1
 386 013a 08D0     		beq	.L40
 387              	.LVL17:
 388              	.L20:
 389              	.LBE9:
  81:Src/maze.c    **** 		end_flag = false;
 390              		.loc 1 81 0
 391 013c 9DF80730 		ldrb	r3, [sp, #7]	@ zero_extendqisi2
 392 0140 DBB2     		uxtb	r3, r3
 393 0142 012B     		cmp	r3, #1
 394 0144 06D1     		bne	.L41
 395              	.LBB12:
  82:Src/maze.c    **** 		uint8_t i=0;
 396              		.loc 1 82 0
 397 0146 0024     		movs	r4, #0
 398 0148 8DF80740 		strb	r4, [sp, #7]
 399              	.LVL18:
  84:Src/maze.c    **** 			uint8_t j=0;
 400              		.loc 1 84 0
 401 014c EDE7     		b	.L21
 402              	.LVL19:
 403              	.L40:
 116:Src/maze.c    **** 			stepNum++;
 404              		.loc 1 116 0
 405 014e 0135     		adds	r5, r5, #1
 406              	.LVL20:
 407 0150 EDB2     		uxtb	r5, r5
 408              	.LVL21:
 409 0152 F3E7     		b	.L20
 410              	.LVL22:
 411              	.L41:
 412              	.LBE12:
 117:Src/maze.c    **** 		}
 118:Src/maze.c    **** 	}
 119:Src/maze.c    **** 	
 120:Src/maze.c    **** }
 413              		.loc 1 120 0
 414 0154 03B0     		add	sp, sp, #12
 415              	.LCFI2:
 416              		.cfi_def_cfa_offset 12
 417              		@ sp needed
 418 0156 70BC     		pop	{r4, r5, r6}
 419              	.LCFI3:
 420              		.cfi_restore 6
 421              		.cfi_restore 5
ARM GAS  C:\Users\kotaro\AppData\Local\Temp\ccaEAuGP.s 			page 11


 422              		.cfi_restore 4
 423              		.cfi_def_cfa_offset 0
 424              	.LVL23:
 425 0158 7047     		bx	lr
 426              	.L43:
 427 015a 00BF     		.align	2
 428              	.L42:
 429 015c 00000000 		.word	maze
 430 0160 00000000 		.word	mazeDef
 431              		.cfi_endproc
 432              	.LFE128:
 434              		.section	.text.Maze_Get_Wall,"ax",%progbits
 435              		.align	1
 436              		.global	Maze_Get_Wall
 437              		.syntax unified
 438              		.thumb
 439              		.thumb_func
 440              		.fpu fpv4-sp-d16
 442              	Maze_Get_Wall:
 443              	.LFB129:
 121:Src/maze.c    **** 
 122:Src/maze.c    **** void Maze_Get_Wall( int8_t x, int8_t y){
 444              		.loc 1 122 0
 445              		.cfi_startproc
 446              		@ args = 0, pretend = 0, frame = 0
 447              		@ frame_needed = 0, uses_anonymous_args = 0
 448              		@ link register save eliminated.
 449              	.LVL24:
 450 0000 F0B4     		push	{r4, r5, r6, r7}
 451              	.LCFI4:
 452              		.cfi_def_cfa_offset 16
 453              		.cfi_offset 4, -16
 454              		.cfi_offset 5, -12
 455              		.cfi_offset 6, -8
 456              		.cfi_offset 7, -4
 457              	.LVL25:
 123:Src/maze.c    **** 	int n_wall=0, e_wall=0, s_wall=0, w_wall=0;
 124:Src/maze.c    **** 	// 探索済みに設定
 125:Src/maze.c    **** 	maze.is_search[x][y] = true;
 458              		.loc 1 125 0
 459 0002 304B     		ldr	r3, .L57
 460 0004 03EB0013 		add	r3, r3, r0, lsl #4
 461 0008 0B44     		add	r3, r3, r1
 462 000a 0122     		movs	r2, #1
 463 000c 83F80026 		strb	r2, [r3, #1536]
 126:Src/maze.c    **** 	// 方向別に壁の状態を取得
 127:Src/maze.c    **** 	switch( position.dir ){
 464              		.loc 1 127 0
 465 0010 2D4B     		ldr	r3, .L57+4
 466 0012 9B78     		ldrb	r3, [r3, #2]	@ zero_extendqisi2
 467 0014 032B     		cmp	r3, #3
 468 0016 50D8     		bhi	.L55
 469 0018 DFE803F0 		tbb	[pc, r3]
 470              	.L47:
 471 001c 02       		.byte	(.L46-.L47)/2
 472 001d 3D       		.byte	(.L48-.L47)/2
 473 001e 43       		.byte	(.L49-.L47)/2
ARM GAS  C:\Users\kotaro\AppData\Local\Temp\ccaEAuGP.s 			page 12


 474 001f 49       		.byte	(.L50-.L47)/2
 475              		.p2align 1
 476              	.L46:
 128:Src/maze.c    **** 	case NORTH:
 129:Src/maze.c    **** 		n_wall = sensor.wall[5];
 477              		.loc 1 129 0
 478 0020 2A4B     		ldr	r3, .L57+8
 479 0022 DE7F     		ldrb	r6, [r3, #31]	@ zero_extendqisi2
 480              	.LVL26:
 130:Src/maze.c    **** 		e_wall = sensor.wall[1];
 481              		.loc 1 130 0
 482 0024 DD7E     		ldrb	r5, [r3, #27]	@ zero_extendqisi2
 483              	.LVL27:
 131:Src/maze.c    **** 		w_wall = sensor.wall[2];
 484              		.loc 1 131 0
 485 0026 1A7F     		ldrb	r2, [r3, #28]	@ zero_extendqisi2
 486              	.LVL28:
 132:Src/maze.c    **** 		s_wall = 0;
 487              		.loc 1 132 0
 488 0028 0024     		movs	r4, #0
 489              	.LVL29:
 490              	.L45:
 133:Src/maze.c    **** 		break;
 134:Src/maze.c    **** 	case EAST:
 135:Src/maze.c    **** 		e_wall = sensor.wall[5];
 136:Src/maze.c    **** 		s_wall = sensor.wall[1];
 137:Src/maze.c    **** 		n_wall = sensor.wall[2];
 138:Src/maze.c    **** 		w_wall = 0;
 139:Src/maze.c    **** 		break;
 140:Src/maze.c    **** 	case SOUTH:
 141:Src/maze.c    **** 		s_wall = sensor.wall[5];
 142:Src/maze.c    **** 		w_wall = sensor.wall[1];
 143:Src/maze.c    **** 		e_wall = sensor.wall[2];
 144:Src/maze.c    **** 		n_wall = 0;
 145:Src/maze.c    **** 		break;
 146:Src/maze.c    **** 	case WEST:
 147:Src/maze.c    **** 		w_wall = sensor.wall[5];
 148:Src/maze.c    **** 		n_wall = sensor.wall[1];
 149:Src/maze.c    **** 		s_wall = sensor.wall[2];
 150:Src/maze.c    **** 		e_wall = 0;
 151:Src/maze.c    **** 		break;
 152:Src/maze.c    **** 	default:
 153:Src/maze.c    **** 		break;
 154:Src/maze.c    **** 	}
 155:Src/maze.c    **** 	// 方向別に保存
 156:Src/maze.c    **** 	maze.wall_north[x][y] = n_wall;
 491              		.loc 1 156 0
 492 002a F6B2     		uxtb	r6, r6
 493              	.LVL30:
 494 002c 254B     		ldr	r3, .L57
 495 002e 03EB0013 		add	r3, r3, r0, lsl #4
 496 0032 0B44     		add	r3, r3, r1
 497 0034 83F80062 		strb	r6, [r3, #512]
 157:Src/maze.c    **** 	maze.wall_east[x][y] = e_wall;
 498              		.loc 1 157 0
 499 0038 EDB2     		uxtb	r5, r5
 500              	.LVL31:
ARM GAS  C:\Users\kotaro\AppData\Local\Temp\ccaEAuGP.s 			page 13


 501 003a 83F80053 		strb	r5, [r3, #768]
 158:Src/maze.c    **** 	maze.wall_south[x][y] = s_wall;
 502              		.loc 1 158 0
 503 003e E4B2     		uxtb	r4, r4
 504              	.LVL32:
 505 0040 83F80044 		strb	r4, [r3, #1024]
 159:Src/maze.c    **** 	maze.wall_west[x][y] = w_wall;
 506              		.loc 1 159 0
 507 0044 D2B2     		uxtb	r2, r2
 508              	.LVL33:
 509 0046 83F80025 		strb	r2, [r3, #1280]
 160:Src/maze.c    **** 	// 隣り合う壁の情報を保存
 161:Src/maze.c    **** 	if( y < MAZE_SIZE-1 ){
 510              		.loc 1 161 0
 511 004a 0D29     		cmp	r1, #13
 512 004c 06DC     		bgt	.L51
 162:Src/maze.c    **** 		maze.wall_south[x][y+1] = n_wall;
 513              		.loc 1 162 0
 514 004e 4B1C     		adds	r3, r1, #1
 515 0050 1C4F     		ldr	r7, .L57
 516 0052 07EB0017 		add	r7, r7, r0, lsl #4
 517 0056 3B44     		add	r3, r3, r7
 518 0058 83F80064 		strb	r6, [r3, #1024]
 519              	.L51:
 163:Src/maze.c    **** 	}
 164:Src/maze.c    **** 	if( x < MAZE_SIZE-1){
 520              		.loc 1 164 0
 521 005c 0D28     		cmp	r0, #13
 522 005e 06DC     		bgt	.L52
 165:Src/maze.c    **** 		maze.wall_west[x+1][y] = e_wall;
 523              		.loc 1 165 0
 524 0060 431C     		adds	r3, r0, #1
 525 0062 184E     		ldr	r6, .L57
 526 0064 06EB0313 		add	r3, r6, r3, lsl #4
 527 0068 0B44     		add	r3, r3, r1
 528 006a 83F80055 		strb	r5, [r3, #1280]
 529              	.L52:
 166:Src/maze.c    **** 	}
 167:Src/maze.c    **** 	if(y > 0){
 530              		.loc 1 167 0
 531 006e 0029     		cmp	r1, #0
 532 0070 06DD     		ble	.L53
 168:Src/maze.c    **** 		maze.wall_north[x][y-1] = s_wall;
 533              		.loc 1 168 0
 534 0072 4B1E     		subs	r3, r1, #1
 535 0074 134D     		ldr	r5, .L57
 536 0076 05EB0015 		add	r5, r5, r0, lsl #4
 537 007a 2B44     		add	r3, r3, r5
 538 007c 83F80042 		strb	r4, [r3, #512]
 539              	.L53:
 169:Src/maze.c    **** 	}
 170:Src/maze.c    **** 	if(x > 0){
 540              		.loc 1 170 0
 541 0080 0028     		cmp	r0, #0
 542 0082 06DD     		ble	.L44
 171:Src/maze.c    **** 		maze.wall_east[x-1][y] = w_wall;
 543              		.loc 1 171 0
ARM GAS  C:\Users\kotaro\AppData\Local\Temp\ccaEAuGP.s 			page 14


 544 0084 0138     		subs	r0, r0, #1
 545              	.LVL34:
 546 0086 0F4B     		ldr	r3, .L57
 547 0088 03EB0010 		add	r0, r3, r0, lsl #4
 548 008c 0144     		add	r1, r1, r0
 549              	.LVL35:
 550 008e 81F80023 		strb	r2, [r1, #768]
 551              	.L44:
 172:Src/maze.c    **** 	}
 173:Src/maze.c    **** }
 552              		.loc 1 173 0
 553 0092 F0BC     		pop	{r4, r5, r6, r7}
 554              	.LCFI5:
 555              		.cfi_remember_state
 556              		.cfi_restore 7
 557              		.cfi_restore 6
 558              		.cfi_restore 5
 559              		.cfi_restore 4
 560              		.cfi_def_cfa_offset 0
 561 0094 7047     		bx	lr
 562              	.LVL36:
 563              	.L48:
 564              	.LCFI6:
 565              		.cfi_restore_state
 135:Src/maze.c    **** 		s_wall = sensor.wall[1];
 566              		.loc 1 135 0
 567 0096 0D4B     		ldr	r3, .L57+8
 568 0098 DD7F     		ldrb	r5, [r3, #31]	@ zero_extendqisi2
 569              	.LVL37:
 136:Src/maze.c    **** 		n_wall = sensor.wall[2];
 570              		.loc 1 136 0
 571 009a DC7E     		ldrb	r4, [r3, #27]	@ zero_extendqisi2
 572              	.LVL38:
 137:Src/maze.c    **** 		w_wall = 0;
 573              		.loc 1 137 0
 574 009c 1E7F     		ldrb	r6, [r3, #28]	@ zero_extendqisi2
 575              	.LVL39:
 138:Src/maze.c    **** 		break;
 576              		.loc 1 138 0
 577 009e 0022     		movs	r2, #0
 139:Src/maze.c    **** 	case SOUTH:
 578              		.loc 1 139 0
 579 00a0 C3E7     		b	.L45
 580              	.LVL40:
 581              	.L49:
 141:Src/maze.c    **** 		w_wall = sensor.wall[1];
 582              		.loc 1 141 0
 583 00a2 0A4B     		ldr	r3, .L57+8
 584 00a4 DC7F     		ldrb	r4, [r3, #31]	@ zero_extendqisi2
 585              	.LVL41:
 142:Src/maze.c    **** 		e_wall = sensor.wall[2];
 586              		.loc 1 142 0
 587 00a6 DA7E     		ldrb	r2, [r3, #27]	@ zero_extendqisi2
 588              	.LVL42:
 143:Src/maze.c    **** 		n_wall = 0;
 589              		.loc 1 143 0
 590 00a8 1D7F     		ldrb	r5, [r3, #28]	@ zero_extendqisi2
ARM GAS  C:\Users\kotaro\AppData\Local\Temp\ccaEAuGP.s 			page 15


 591              	.LVL43:
 144:Src/maze.c    **** 		break;
 592              		.loc 1 144 0
 593 00aa 0026     		movs	r6, #0
 145:Src/maze.c    **** 	case WEST:
 594              		.loc 1 145 0
 595 00ac BDE7     		b	.L45
 596              	.LVL44:
 597              	.L50:
 147:Src/maze.c    **** 		n_wall = sensor.wall[1];
 598              		.loc 1 147 0
 599 00ae 074B     		ldr	r3, .L57+8
 600 00b0 DA7F     		ldrb	r2, [r3, #31]	@ zero_extendqisi2
 601              	.LVL45:
 148:Src/maze.c    **** 		s_wall = sensor.wall[2];
 602              		.loc 1 148 0
 603 00b2 DE7E     		ldrb	r6, [r3, #27]	@ zero_extendqisi2
 604              	.LVL46:
 149:Src/maze.c    **** 		e_wall = 0;
 605              		.loc 1 149 0
 606 00b4 1C7F     		ldrb	r4, [r3, #28]	@ zero_extendqisi2
 607              	.LVL47:
 150:Src/maze.c    **** 		break;
 608              		.loc 1 150 0
 609 00b6 0025     		movs	r5, #0
 151:Src/maze.c    **** 	default:
 610              		.loc 1 151 0
 611 00b8 B7E7     		b	.L45
 612              	.LVL48:
 613              	.L55:
 123:Src/maze.c    **** 	// 探索済みに設定
 614              		.loc 1 123 0
 615 00ba 0022     		movs	r2, #0
 616 00bc 1446     		mov	r4, r2
 617 00be 1546     		mov	r5, r2
 618 00c0 1646     		mov	r6, r2
 619 00c2 B2E7     		b	.L45
 620              	.L58:
 621              		.align	2
 622              	.L57:
 623 00c4 00000000 		.word	maze
 624 00c8 00000000 		.word	position
 625 00cc 00000000 		.word	sensor
 626              		.cfi_endproc
 627              	.LFE129:
 629              		.section	.text.Update_Position,"ax",%progbits
 630              		.align	1
 631              		.global	Update_Position
 632              		.syntax unified
 633              		.thumb
 634              		.thumb_func
 635              		.fpu fpv4-sp-d16
 637              	Update_Position:
 638              	.LFB130:
 174:Src/maze.c    **** 
 175:Src/maze.c    **** void Update_Position(int8_t next_motion){
 639              		.loc 1 175 0
ARM GAS  C:\Users\kotaro\AppData\Local\Temp\ccaEAuGP.s 			page 16


 640              		.cfi_startproc
 641              		@ args = 0, pretend = 0, frame = 0
 642              		@ frame_needed = 0, uses_anonymous_args = 0
 643              		@ link register save eliminated.
 644              	.LVL49:
 176:Src/maze.c    **** 	switch(next_motion){
 645              		.loc 1 176 0
 646 0000 0130     		adds	r0, r0, #1
 647              	.LVL50:
 648 0002 0328     		cmp	r0, #3
 649 0004 00F28C80 		bhi	.L59
 650 0008 DFE800F0 		tbb	[pc, r0]
 651              	.L62:
 652 000c 43       		.byte	(.L61-.L62)/2
 653 000d 27       		.byte	(.L63-.L62)/2
 654 000e 02       		.byte	(.L64-.L62)/2
 655 000f 67       		.byte	(.L65-.L62)/2
 656              		.p2align 1
 657              	.L64:
 177:Src/maze.c    **** 		case LEFT:
 178:Src/maze.c    **** 			switch(position.dir){
 658              		.loc 1 178 0
 659 0010 444B     		ldr	r3, .L86
 660 0012 9B78     		ldrb	r3, [r3, #2]	@ zero_extendqisi2
 661 0014 032B     		cmp	r3, #3
 662 0016 00F28380 		bhi	.L59
 663 001a DFE803F0 		tbb	[pc, r3]
 664              	.L67:
 665 001e 02       		.byte	(.L66-.L67)/2
 666 001f 09       		.byte	(.L68-.L67)/2
 667 0020 10       		.byte	(.L69-.L67)/2
 668 0021 17       		.byte	(.L70-.L67)/2
 669              		.p2align 1
 670              	.L66:
 179:Src/maze.c    **** 				case NORTH:
 180:Src/maze.c    **** 					position.x --;
 671              		.loc 1 180 0
 672 0022 404B     		ldr	r3, .L86
 673 0024 1A78     		ldrb	r2, [r3]	@ zero_extendqisi2
 674 0026 013A     		subs	r2, r2, #1
 675 0028 1A70     		strb	r2, [r3]
 181:Src/maze.c    **** 					position.dir = WEST;
 676              		.loc 1 181 0
 677 002a 0322     		movs	r2, #3
 678 002c 9A70     		strb	r2, [r3, #2]
 182:Src/maze.c    **** 					break;
 679              		.loc 1 182 0
 680 002e 7047     		bx	lr
 681              	.L68:
 183:Src/maze.c    **** 				case EAST:
 184:Src/maze.c    **** 					position.y ++;
 682              		.loc 1 184 0
 683 0030 3C4B     		ldr	r3, .L86
 684 0032 5A78     		ldrb	r2, [r3, #1]	@ zero_extendqisi2
 685 0034 0132     		adds	r2, r2, #1
 686 0036 5A70     		strb	r2, [r3, #1]
 185:Src/maze.c    **** 					position.dir = NORTH;
ARM GAS  C:\Users\kotaro\AppData\Local\Temp\ccaEAuGP.s 			page 17


 687              		.loc 1 185 0
 688 0038 0022     		movs	r2, #0
 689 003a 9A70     		strb	r2, [r3, #2]
 186:Src/maze.c    **** 					break;
 690              		.loc 1 186 0
 691 003c 7047     		bx	lr
 692              	.L69:
 187:Src/maze.c    **** 				case SOUTH:
 188:Src/maze.c    **** 					position.x ++;
 693              		.loc 1 188 0
 694 003e 394B     		ldr	r3, .L86
 695 0040 1A78     		ldrb	r2, [r3]	@ zero_extendqisi2
 696 0042 0132     		adds	r2, r2, #1
 697 0044 1A70     		strb	r2, [r3]
 189:Src/maze.c    **** 					position.dir = EAST;
 698              		.loc 1 189 0
 699 0046 0122     		movs	r2, #1
 700 0048 9A70     		strb	r2, [r3, #2]
 190:Src/maze.c    **** 					break;
 701              		.loc 1 190 0
 702 004a 7047     		bx	lr
 703              	.L70:
 191:Src/maze.c    **** 				case WEST:
 192:Src/maze.c    **** 					position.y --;
 704              		.loc 1 192 0
 705 004c 354B     		ldr	r3, .L86
 706 004e 5A78     		ldrb	r2, [r3, #1]	@ zero_extendqisi2
 707 0050 013A     		subs	r2, r2, #1
 708 0052 5A70     		strb	r2, [r3, #1]
 193:Src/maze.c    **** 					position.dir = SOUTH;
 709              		.loc 1 193 0
 710 0054 0222     		movs	r2, #2
 711 0056 9A70     		strb	r2, [r3, #2]
 194:Src/maze.c    **** 					break;
 712              		.loc 1 194 0
 713 0058 7047     		bx	lr
 714              	.L63:
 195:Src/maze.c    **** 			}
 196:Src/maze.c    **** 			break;
 197:Src/maze.c    **** 		case STRAIGHT:
 198:Src/maze.c    **** 			switch(position.dir){
 715              		.loc 1 198 0
 716 005a 324B     		ldr	r3, .L86
 717 005c 9B78     		ldrb	r3, [r3, #2]	@ zero_extendqisi2
 718 005e 032B     		cmp	r3, #3
 719 0060 5ED8     		bhi	.L59
 720 0062 DFE803F0 		tbb	[pc, r3]
 721              	.L72:
 722 0066 02       		.byte	(.L71-.L72)/2
 723 0067 07       		.byte	(.L73-.L72)/2
 724 0068 0C       		.byte	(.L74-.L72)/2
 725 0069 11       		.byte	(.L75-.L72)/2
 726              		.p2align 1
 727              	.L71:
 199:Src/maze.c    **** 				case NORTH:
 200:Src/maze.c    **** 					position.y ++;
 728              		.loc 1 200 0
ARM GAS  C:\Users\kotaro\AppData\Local\Temp\ccaEAuGP.s 			page 18


 729 006a 2E4A     		ldr	r2, .L86
 730 006c 5378     		ldrb	r3, [r2, #1]	@ zero_extendqisi2
 731 006e 0133     		adds	r3, r3, #1
 732 0070 5370     		strb	r3, [r2, #1]
 201:Src/maze.c    **** 					break;
 733              		.loc 1 201 0
 734 0072 7047     		bx	lr
 735              	.L73:
 202:Src/maze.c    **** 				case EAST:
 203:Src/maze.c    **** 					position.x ++;
 736              		.loc 1 203 0
 737 0074 2B4A     		ldr	r2, .L86
 738 0076 1378     		ldrb	r3, [r2]	@ zero_extendqisi2
 739 0078 0133     		adds	r3, r3, #1
 740 007a 1370     		strb	r3, [r2]
 204:Src/maze.c    **** 					break;
 741              		.loc 1 204 0
 742 007c 7047     		bx	lr
 743              	.L74:
 205:Src/maze.c    **** 				case SOUTH:
 206:Src/maze.c    **** 					position.y --;
 744              		.loc 1 206 0
 745 007e 294A     		ldr	r2, .L86
 746 0080 5378     		ldrb	r3, [r2, #1]	@ zero_extendqisi2
 747 0082 013B     		subs	r3, r3, #1
 748 0084 5370     		strb	r3, [r2, #1]
 207:Src/maze.c    **** 					break;
 749              		.loc 1 207 0
 750 0086 7047     		bx	lr
 751              	.L75:
 208:Src/maze.c    **** 				case WEST:
 209:Src/maze.c    **** 					position.x --;
 752              		.loc 1 209 0
 753 0088 264A     		ldr	r2, .L86
 754 008a 1378     		ldrb	r3, [r2]	@ zero_extendqisi2
 755 008c 013B     		subs	r3, r3, #1
 756 008e 1370     		strb	r3, [r2]
 210:Src/maze.c    **** 					break;
 757              		.loc 1 210 0
 758 0090 7047     		bx	lr
 759              	.L61:
 211:Src/maze.c    **** 			}
 212:Src/maze.c    **** 			break;
 213:Src/maze.c    **** 		case RIGHT:
 214:Src/maze.c    **** 			switch(position.dir){
 760              		.loc 1 214 0
 761 0092 244B     		ldr	r3, .L86
 762 0094 9B78     		ldrb	r3, [r3, #2]	@ zero_extendqisi2
 763 0096 032B     		cmp	r3, #3
 764 0098 42D8     		bhi	.L59
 765 009a DFE803F0 		tbb	[pc, r3]
 766              	.L77:
 767 009e 02       		.byte	(.L76-.L77)/2
 768 009f 09       		.byte	(.L78-.L77)/2
 769 00a0 10       		.byte	(.L79-.L77)/2
 770 00a1 17       		.byte	(.L80-.L77)/2
 771              		.p2align 1
ARM GAS  C:\Users\kotaro\AppData\Local\Temp\ccaEAuGP.s 			page 19


 772              	.L76:
 215:Src/maze.c    **** 				case NORTH:
 216:Src/maze.c    **** 					position.x ++;
 773              		.loc 1 216 0
 774 00a2 204B     		ldr	r3, .L86
 775 00a4 1A78     		ldrb	r2, [r3]	@ zero_extendqisi2
 776 00a6 0132     		adds	r2, r2, #1
 777 00a8 1A70     		strb	r2, [r3]
 217:Src/maze.c    **** 					position.dir = EAST;
 778              		.loc 1 217 0
 779 00aa 0122     		movs	r2, #1
 780 00ac 9A70     		strb	r2, [r3, #2]
 218:Src/maze.c    **** 					break;
 781              		.loc 1 218 0
 782 00ae 7047     		bx	lr
 783              	.L78:
 219:Src/maze.c    **** 				case EAST:
 220:Src/maze.c    **** 					position.y --;
 784              		.loc 1 220 0
 785 00b0 1C4B     		ldr	r3, .L86
 786 00b2 5A78     		ldrb	r2, [r3, #1]	@ zero_extendqisi2
 787 00b4 013A     		subs	r2, r2, #1
 788 00b6 5A70     		strb	r2, [r3, #1]
 221:Src/maze.c    **** 					position.dir = SOUTH;
 789              		.loc 1 221 0
 790 00b8 0222     		movs	r2, #2
 791 00ba 9A70     		strb	r2, [r3, #2]
 222:Src/maze.c    **** 					break;
 792              		.loc 1 222 0
 793 00bc 7047     		bx	lr
 794              	.L79:
 223:Src/maze.c    **** 				case SOUTH:
 224:Src/maze.c    **** 					position.x --;
 795              		.loc 1 224 0
 796 00be 194B     		ldr	r3, .L86
 797 00c0 1A78     		ldrb	r2, [r3]	@ zero_extendqisi2
 798 00c2 013A     		subs	r2, r2, #1
 799 00c4 1A70     		strb	r2, [r3]
 225:Src/maze.c    **** 					position.dir = WEST;
 800              		.loc 1 225 0
 801 00c6 0322     		movs	r2, #3
 802 00c8 9A70     		strb	r2, [r3, #2]
 226:Src/maze.c    **** 					break;
 803              		.loc 1 226 0
 804 00ca 7047     		bx	lr
 805              	.L80:
 227:Src/maze.c    **** 				case WEST:
 228:Src/maze.c    **** 					position.y ++;
 806              		.loc 1 228 0
 807 00cc 154B     		ldr	r3, .L86
 808 00ce 5A78     		ldrb	r2, [r3, #1]	@ zero_extendqisi2
 809 00d0 0132     		adds	r2, r2, #1
 810 00d2 5A70     		strb	r2, [r3, #1]
 229:Src/maze.c    **** 					position.dir = NORTH;
 811              		.loc 1 229 0
 812 00d4 0022     		movs	r2, #0
 813 00d6 9A70     		strb	r2, [r3, #2]
ARM GAS  C:\Users\kotaro\AppData\Local\Temp\ccaEAuGP.s 			page 20


 230:Src/maze.c    **** 					break;
 814              		.loc 1 230 0
 815 00d8 7047     		bx	lr
 816              	.L65:
 231:Src/maze.c    **** 			}
 232:Src/maze.c    **** 			break;
 233:Src/maze.c    **** 		case UTURN:
 234:Src/maze.c    **** 			switch(position.dir){
 817              		.loc 1 234 0
 818 00da 124B     		ldr	r3, .L86
 819 00dc 9B78     		ldrb	r3, [r3, #2]	@ zero_extendqisi2
 820 00de 032B     		cmp	r3, #3
 821 00e0 1ED8     		bhi	.L59
 822 00e2 DFE803F0 		tbb	[pc, r3]
 823              	.L82:
 824 00e6 02       		.byte	(.L81-.L82)/2
 825 00e7 09       		.byte	(.L83-.L82)/2
 826 00e8 10       		.byte	(.L84-.L82)/2
 827 00e9 17       		.byte	(.L85-.L82)/2
 828              		.p2align 1
 829              	.L81:
 235:Src/maze.c    **** 				case NORTH:
 236:Src/maze.c    **** 					position.y --;
 830              		.loc 1 236 0
 831 00ea 0E4B     		ldr	r3, .L86
 832 00ec 5A78     		ldrb	r2, [r3, #1]	@ zero_extendqisi2
 833 00ee 013A     		subs	r2, r2, #1
 834 00f0 5A70     		strb	r2, [r3, #1]
 237:Src/maze.c    **** 					position.dir = SOUTH;
 835              		.loc 1 237 0
 836 00f2 0222     		movs	r2, #2
 837 00f4 9A70     		strb	r2, [r3, #2]
 238:Src/maze.c    **** 					break;
 838              		.loc 1 238 0
 839 00f6 7047     		bx	lr
 840              	.L83:
 239:Src/maze.c    **** 				case EAST:
 240:Src/maze.c    **** 					position.x --;
 841              		.loc 1 240 0
 842 00f8 0A4B     		ldr	r3, .L86
 843 00fa 1A78     		ldrb	r2, [r3]	@ zero_extendqisi2
 844 00fc 013A     		subs	r2, r2, #1
 845 00fe 1A70     		strb	r2, [r3]
 241:Src/maze.c    **** 					position.dir = WEST;
 846              		.loc 1 241 0
 847 0100 0322     		movs	r2, #3
 848 0102 9A70     		strb	r2, [r3, #2]
 242:Src/maze.c    **** 					break;
 849              		.loc 1 242 0
 850 0104 7047     		bx	lr
 851              	.L84:
 243:Src/maze.c    **** 				case SOUTH:
 244:Src/maze.c    **** 					position.y ++;
 852              		.loc 1 244 0
 853 0106 074B     		ldr	r3, .L86
 854 0108 5A78     		ldrb	r2, [r3, #1]	@ zero_extendqisi2
 855 010a 0132     		adds	r2, r2, #1
ARM GAS  C:\Users\kotaro\AppData\Local\Temp\ccaEAuGP.s 			page 21


 856 010c 5A70     		strb	r2, [r3, #1]
 245:Src/maze.c    **** 					position.dir = NORTH;
 857              		.loc 1 245 0
 858 010e 0022     		movs	r2, #0
 859 0110 9A70     		strb	r2, [r3, #2]
 246:Src/maze.c    **** 					break;
 860              		.loc 1 246 0
 861 0112 7047     		bx	lr
 862              	.L85:
 247:Src/maze.c    **** 				case WEST:
 248:Src/maze.c    **** 					position.x ++;
 863              		.loc 1 248 0
 864 0114 034B     		ldr	r3, .L86
 865 0116 1A78     		ldrb	r2, [r3]	@ zero_extendqisi2
 866 0118 0132     		adds	r2, r2, #1
 867 011a 1A70     		strb	r2, [r3]
 249:Src/maze.c    **** 					position.dir = EAST;
 868              		.loc 1 249 0
 869 011c 0122     		movs	r2, #1
 870 011e 9A70     		strb	r2, [r3, #2]
 871              	.L59:
 250:Src/maze.c    **** 					break;
 251:Src/maze.c    **** 			}
 252:Src/maze.c    **** 			break;
 253:Src/maze.c    **** 	}
 254:Src/maze.c    **** }
 872              		.loc 1 254 0
 873 0120 7047     		bx	lr
 874              	.L87:
 875 0122 00BF     		.align	2
 876              	.L86:
 877 0124 00000000 		.word	position
 878              		.cfi_endproc
 879              	.LFE130:
 881              		.section	.text.Maze_Next_Motion,"ax",%progbits
 882              		.align	1
 883              		.global	Maze_Next_Motion
 884              		.syntax unified
 885              		.thumb
 886              		.thumb_func
 887              		.fpu fpv4-sp-d16
 889              	Maze_Next_Motion:
 890              	.LFB131:
 255:Src/maze.c    **** 
 256:Src/maze.c    **** int8_t Maze_Next_Motion(void){
 891              		.loc 1 256 0
 892              		.cfi_startproc
 893              		@ args = 0, pretend = 0, frame = 0
 894              		@ frame_needed = 0, uses_anonymous_args = 0
 895              		@ link register save eliminated.
 896 0000 30B4     		push	{r4, r5}
 897              	.LCFI7:
 898              		.cfi_def_cfa_offset 8
 899              		.cfi_offset 4, -8
 900              		.cfi_offset 5, -4
 901              	.LVL51:
 257:Src/maze.c    **** 	/* <概要>   : 次の動作を決定
ARM GAS  C:\Users\kotaro\AppData\Local\Temp\ccaEAuGP.s 			page 22


 258:Src/maze.c    **** 	 * <引数>   : なし
 259:Src/maze.c    **** 	 * <戻り値> : 次の動作
 260:Src/maze.c    **** 	 */
 261:Src/maze.c    **** 	uint8_t tmp_step = MAX_STEP;		// 歩数
 262:Src/maze.c    **** 	int8_t tmp_dir = UTURN;				// 方向
 263:Src/maze.c    **** 	// 現在の向きに応じて場合分けし、 歩数が少ない方向を判断
 264:Src/maze.c    **** 	// 迷路外に進むのとゴールがスタートマス以外の場合(0,0)に進むのを阻止
 265:Src/maze.c    **** 	switch( position.dir ){
 902              		.loc 1 265 0
 903 0002 8F4B     		ldr	r3, .L134
 904 0004 9B78     		ldrb	r3, [r3, #2]	@ zero_extendqisi2
 905 0006 032B     		cmp	r3, #3
 906 0008 00F21581 		bhi	.L107
 907 000c DFE803F0 		tbb	[pc, r3]
 908              	.L91:
 909 0010 02       		.byte	(.L90-.L91)/2
 910 0011 46       		.byte	(.L92-.L91)/2
 911 0012 8B       		.byte	(.L93-.L91)/2
 912 0013 CE       		.byte	(.L94-.L91)/2
 913              		.p2align 1
 914              	.L90:
 266:Src/maze.c    **** 		case NORTH:
 267:Src/maze.c    **** 			if( maze.step[position.x][position.y+1] < tmp_step ){
 915              		.loc 1 267 0
 916 0014 8A4B     		ldr	r3, .L134
 917 0016 1A78     		ldrb	r2, [r3]	@ zero_extendqisi2
 918 0018 5978     		ldrb	r1, [r3, #1]	@ zero_extendqisi2
 919 001a 481C     		adds	r0, r1, #1
 920 001c 894B     		ldr	r3, .L134+4
 921 001e 03EB0213 		add	r3, r3, r2, lsl #4
 922 0022 1B5C     		ldrb	r3, [r3, r0]	@ zero_extendqisi2
 923 0024 FD2B     		cmp	r3, #253
 924 0026 0BD8     		bhi	.L108
 268:Src/maze.c    **** 				if( position.y < MAZE_SIZE ){
 925              		.loc 1 268 0
 926 0028 0E29     		cmp	r1, #14
 927 002a 32D8     		bhi	.L109
 269:Src/maze.c    **** 					if( maze.wall_north[position.x][position.y] == false ){
 928              		.loc 1 269 0
 929 002c 8548     		ldr	r0, .L134+4
 930 002e 00EB0210 		add	r0, r0, r2, lsl #4
 931 0032 0844     		add	r0, r0, r1
 932 0034 90F80002 		ldrb	r0, [r0, #512]	@ zero_extendqisi2
 933 0038 70B3     		cbz	r0, .L110
 262:Src/maze.c    **** 	// 現在の向きに応じて場合分けし、 歩数が少ない方向を判断
 934              		.loc 1 262 0
 935 003a 0220     		movs	r0, #2
 261:Src/maze.c    **** 	int8_t tmp_dir = UTURN;				// 方向
 936              		.loc 1 261 0
 937 003c FE23     		movs	r3, #254
 938 003e 01E0     		b	.L95
 939              	.L108:
 262:Src/maze.c    **** 	// 現在の向きに応じて場合分けし、 歩数が少ない方向を判断
 940              		.loc 1 262 0
 941 0040 0220     		movs	r0, #2
 261:Src/maze.c    **** 	int8_t tmp_dir = UTURN;				// 方向
 942              		.loc 1 261 0
ARM GAS  C:\Users\kotaro\AppData\Local\Temp\ccaEAuGP.s 			page 23


 943 0042 FE23     		movs	r3, #254
 944              	.L95:
 945              	.LVL52:
 270:Src/maze.c    **** 						tmp_step = maze.step[position.x][position.y+1];
 271:Src/maze.c    **** 						tmp_dir = STRAIGHT;
 272:Src/maze.c    **** 					}
 273:Src/maze.c    **** 				}
 274:Src/maze.c    **** 			}
 275:Src/maze.c    **** 			if( maze.step[position.x-1][position.y] < tmp_step ){
 946              		.loc 1 275 0
 947 0044 541E     		subs	r4, r2, #1
 948 0046 7F4D     		ldr	r5, .L134+4
 949 0048 05EB0414 		add	r4, r5, r4, lsl #4
 950 004c 645C     		ldrb	r4, [r4, r1]	@ zero_extendqisi2
 951 004e 9C42     		cmp	r4, r3
 952 0050 08D2     		bcs	.L96
 276:Src/maze.c    **** 				if( position.x > 0 ){
 953              		.loc 1 276 0
 954 0052 3AB1     		cbz	r2, .L96
 277:Src/maze.c    **** 					if( maze.wall_west[position.x][position.y] == false ){
 955              		.loc 1 277 0
 956 0054 05EB0215 		add	r5, r5, r2, lsl #4
 957 0058 0D44     		add	r5, r5, r1
 958 005a 95F80055 		ldrb	r5, [r5, #1280]	@ zero_extendqisi2
 959 005e 0DB9     		cbnz	r5, .L96
 278:Src/maze.c    **** 						tmp_step = maze.step[position.x-1][position.y];
 960              		.loc 1 278 0
 961 0060 2346     		mov	r3, r4
 962              	.LVL53:
 279:Src/maze.c    **** 						tmp_dir = LEFT;
 963              		.loc 1 279 0
 964 0062 0120     		movs	r0, #1
 965              	.LVL54:
 966              	.L96:
 280:Src/maze.c    **** 					}
 281:Src/maze.c    **** 				}
 282:Src/maze.c    **** 			}
 283:Src/maze.c    **** 			if( maze.step[position.x+1][position.y] < tmp_step ){
 967              		.loc 1 283 0
 968 0064 541C     		adds	r4, r2, #1
 969 0066 774D     		ldr	r5, .L134+4
 970 0068 05EB0414 		add	r4, r5, r4, lsl #4
 971 006c 645C     		ldrb	r4, [r4, r1]	@ zero_extendqisi2
 972 006e 9C42     		cmp	r4, r3
 973 0070 0AD2     		bcs	.L97
 284:Src/maze.c    **** 				if( position.x < MAZE_SIZE ){
 974              		.loc 1 284 0
 975 0072 0E2A     		cmp	r2, #14
 976 0074 08D8     		bhi	.L97
 285:Src/maze.c    **** 					if( maze.wall_east[position.x][position.y] == false ){
 977              		.loc 1 285 0
 978 0076 05EB0212 		add	r2, r5, r2, lsl #4
 979 007a 1144     		add	r1, r1, r2
 980 007c 91F80023 		ldrb	r2, [r1, #768]	@ zero_extendqisi2
 981 0080 12B9     		cbnz	r2, .L97
 286:Src/maze.c    **** 						tmp_step = maze.step[position.x+1][position.y];
 982              		.loc 1 286 0
ARM GAS  C:\Users\kotaro\AppData\Local\Temp\ccaEAuGP.s 			page 24


 983 0082 2346     		mov	r3, r4
 984              	.LVL55:
 287:Src/maze.c    **** 						tmp_dir = RIGHT;
 985              		.loc 1 287 0
 986 0084 4FF0FF30 		mov	r0, #-1
 987              	.LVL56:
 988              	.L97:
 288:Src/maze.c    **** 					}
 289:Src/maze.c    **** 				}
 290:Src/maze.c    **** 			}
 291:Src/maze.c    **** 			if( tmp_step == MAX_STEP){
 989              		.loc 1 291 0
 990 0088 FE2B     		cmp	r3, #254
 991 008a 00F0D680 		beq	.L133
 992              	.LVL57:
 993              	.L89:
 292:Src/maze.c    **** 				tmp_dir = UTURN;
 293:Src/maze.c    **** 			}
 294:Src/maze.c    **** 			break;
 295:Src/maze.c    **** 		case EAST:
 296:Src/maze.c    **** 			if( maze.step[position.x+1][position.y] < tmp_step ){
 297:Src/maze.c    **** 				if( position.x < MAZE_SIZE ){
 298:Src/maze.c    **** 					if( maze.wall_east[position.x][position.y] == false ){
 299:Src/maze.c    **** 						tmp_step = maze.step[position.x+1][position.y];
 300:Src/maze.c    **** 						tmp_dir = STRAIGHT;
 301:Src/maze.c    **** 					}
 302:Src/maze.c    **** 				}
 303:Src/maze.c    **** 			}
 304:Src/maze.c    **** 			if( maze.step[position.x][position.y+1] < tmp_step ){
 305:Src/maze.c    **** 				if( position.y < MAZE_SIZE ){
 306:Src/maze.c    **** 					if( maze.wall_north[position.x][position.y] == false ){
 307:Src/maze.c    **** 						tmp_step = maze.step[position.x][position.y+1];
 308:Src/maze.c    **** 						tmp_dir = LEFT;
 309:Src/maze.c    **** 					}
 310:Src/maze.c    **** 				}
 311:Src/maze.c    **** 			}
 312:Src/maze.c    **** 			if( maze.step[position.x][position.y-1] < tmp_step ){
 313:Src/maze.c    **** 				if( position.y > 0 ){
 314:Src/maze.c    **** 					if( maze.wall_south[position.x][position.y] == false ){
 315:Src/maze.c    **** 						tmp_step = maze.step[position.x][position.y-1];
 316:Src/maze.c    **** 						tmp_dir = RIGHT;
 317:Src/maze.c    **** 					}
 318:Src/maze.c    **** 				}
 319:Src/maze.c    **** 			}
 320:Src/maze.c    **** 			if( tmp_step == MAX_STEP){
 321:Src/maze.c    **** 				tmp_dir = UTURN;
 322:Src/maze.c    **** 			}
 323:Src/maze.c    **** 			break;
 324:Src/maze.c    **** 		case SOUTH:
 325:Src/maze.c    **** 			if( maze.step[position.x][position.y-1] < tmp_step ){
 326:Src/maze.c    **** 				if( position.y > 0 ){
 327:Src/maze.c    **** 					if( maze.wall_south[position.x][position.y] == false ){
 328:Src/maze.c    **** 						tmp_step = maze.step[position.x][position.y-1];
 329:Src/maze.c    **** 						tmp_dir = STRAIGHT;
 330:Src/maze.c    **** 				}
 331:Src/maze.c    **** 				}
 332:Src/maze.c    **** 			}
ARM GAS  C:\Users\kotaro\AppData\Local\Temp\ccaEAuGP.s 			page 25


 333:Src/maze.c    **** 			if( maze.step[position.x+1][position.y] < tmp_step ){
 334:Src/maze.c    **** 				if( position.x < MAZE_SIZE){
 335:Src/maze.c    **** 					if( maze.wall_east[position.x][position.y] == false ){
 336:Src/maze.c    **** 						tmp_step = maze.step[position.x+1][position.y];
 337:Src/maze.c    **** 						tmp_dir = LEFT;
 338:Src/maze.c    **** 					}
 339:Src/maze.c    **** 				}
 340:Src/maze.c    **** 			}
 341:Src/maze.c    **** 			if( maze.step[position.x-1][position.y] < tmp_step ){
 342:Src/maze.c    **** 				if( position.x > 0 ){
 343:Src/maze.c    **** 					if( maze.wall_west[position.x][position.y] == false ){
 344:Src/maze.c    **** 						tmp_step = maze.step[position.x-1][position.y];
 345:Src/maze.c    **** 						tmp_dir = RIGHT;
 346:Src/maze.c    **** 					}
 347:Src/maze.c    **** 				}
 348:Src/maze.c    **** 			}
 349:Src/maze.c    **** 			if( tmp_step == MAX_STEP){
 350:Src/maze.c    **** 				tmp_dir = UTURN;
 351:Src/maze.c    **** 			}
 352:Src/maze.c    **** 			break;
 353:Src/maze.c    **** 		case WEST:
 354:Src/maze.c    **** 			if( maze.step[position.x-1][position.y] < tmp_step ){
 355:Src/maze.c    **** 				if( position.x > 0 ){
 356:Src/maze.c    **** 					if( maze.wall_west[position.x][position.y] == false ){
 357:Src/maze.c    **** 						tmp_step = maze.step[position.x-1][position.y];
 358:Src/maze.c    **** 						tmp_dir = STRAIGHT;
 359:Src/maze.c    **** 					}
 360:Src/maze.c    **** 				}
 361:Src/maze.c    **** 			}
 362:Src/maze.c    **** 			if( maze.step[position.x][position.y-1] < tmp_step ){
 363:Src/maze.c    **** 				if( position.y > 0 ){
 364:Src/maze.c    **** 					if( maze.wall_south[position.x][position.y] == false ){
 365:Src/maze.c    **** 						tmp_step = maze.step[position.x][position.y-1];
 366:Src/maze.c    **** 						tmp_dir = LEFT;
 367:Src/maze.c    **** 					}
 368:Src/maze.c    **** 				}
 369:Src/maze.c    **** 			}
 370:Src/maze.c    **** 			if( maze.step[position.x][position.y+1] < tmp_step ){
 371:Src/maze.c    **** 				if( position.y < MAZE_SIZE ){
 372:Src/maze.c    **** 					if( maze.wall_north[position.x][position.y] == false ){
 373:Src/maze.c    **** 						tmp_step = maze.step[position.x][position.y+1];
 374:Src/maze.c    **** 						tmp_dir = RIGHT;
 375:Src/maze.c    **** 					}
 376:Src/maze.c    **** 				}
 377:Src/maze.c    **** 			}
 378:Src/maze.c    **** 			if( tmp_step == MAX_STEP){
 379:Src/maze.c    **** 				tmp_dir = UTURN;
 380:Src/maze.c    **** 			}
 381:Src/maze.c    **** 			break;
 382:Src/maze.c    **** 		default:
 383:Src/maze.c    **** 			break;
 384:Src/maze.c    **** 	}
 385:Src/maze.c    **** 	return tmp_dir;
 386:Src/maze.c    **** }
 994              		.loc 1 386 0
 995 008e 30BC     		pop	{r4, r5}
 996              	.LCFI8:
ARM GAS  C:\Users\kotaro\AppData\Local\Temp\ccaEAuGP.s 			page 26


 997              		.cfi_remember_state
 998              		.cfi_restore 5
 999              		.cfi_restore 4
 1000              		.cfi_def_cfa_offset 0
 1001 0090 7047     		bx	lr
 1002              	.LVL58:
 1003              	.L109:
 1004              	.LCFI9:
 1005              		.cfi_restore_state
 262:Src/maze.c    **** 	// 現在の向きに応じて場合分けし、 歩数が少ない方向を判断
 1006              		.loc 1 262 0
 1007 0092 0220     		movs	r0, #2
 261:Src/maze.c    **** 	int8_t tmp_dir = UTURN;				// 方向
 1008              		.loc 1 261 0
 1009 0094 FE23     		movs	r3, #254
 1010 0096 D5E7     		b	.L95
 1011              	.L110:
 271:Src/maze.c    **** 					}
 1012              		.loc 1 271 0
 1013 0098 0020     		movs	r0, #0
 1014 009a D3E7     		b	.L95
 1015              	.L92:
 296:Src/maze.c    **** 				if( position.x < MAZE_SIZE ){
 1016              		.loc 1 296 0
 1017 009c 684A     		ldr	r2, .L134
 1018 009e 1178     		ldrb	r1, [r2]	@ zero_extendqisi2
 1019 00a0 481C     		adds	r0, r1, #1
 1020 00a2 5278     		ldrb	r2, [r2, #1]	@ zero_extendqisi2
 1021 00a4 674B     		ldr	r3, .L134+4
 1022 00a6 03EB0013 		add	r3, r3, r0, lsl #4
 1023 00aa 9B5C     		ldrb	r3, [r3, r2]	@ zero_extendqisi2
 1024 00ac FD2B     		cmp	r3, #253
 1025 00ae 0BD8     		bhi	.L114
 297:Src/maze.c    **** 					if( maze.wall_east[position.x][position.y] == false ){
 1026              		.loc 1 297 0
 1027 00b0 0E29     		cmp	r1, #14
 1028 00b2 33D8     		bhi	.L115
 298:Src/maze.c    **** 						tmp_step = maze.step[position.x+1][position.y];
 1029              		.loc 1 298 0
 1030 00b4 6348     		ldr	r0, .L134+4
 1031 00b6 00EB0110 		add	r0, r0, r1, lsl #4
 1032 00ba 1044     		add	r0, r0, r2
 1033 00bc 90F80003 		ldrb	r0, [r0, #768]	@ zero_extendqisi2
 1034 00c0 78B3     		cbz	r0, .L116
 262:Src/maze.c    **** 	// 現在の向きに応じて場合分けし、 歩数が少ない方向を判断
 1035              		.loc 1 262 0
 1036 00c2 0220     		movs	r0, #2
 261:Src/maze.c    **** 	int8_t tmp_dir = UTURN;				// 方向
 1037              		.loc 1 261 0
 1038 00c4 FE23     		movs	r3, #254
 1039 00c6 01E0     		b	.L98
 1040              	.L114:
 262:Src/maze.c    **** 	// 現在の向きに応じて場合分けし、 歩数が少ない方向を判断
 1041              		.loc 1 262 0
 1042 00c8 0220     		movs	r0, #2
 261:Src/maze.c    **** 	int8_t tmp_dir = UTURN;				// 方向
 1043              		.loc 1 261 0
ARM GAS  C:\Users\kotaro\AppData\Local\Temp\ccaEAuGP.s 			page 27


 1044 00ca FE23     		movs	r3, #254
 1045              	.L98:
 1046              	.LVL59:
 304:Src/maze.c    **** 				if( position.y < MAZE_SIZE ){
 1047              		.loc 1 304 0
 1048 00cc 541C     		adds	r4, r2, #1
 1049 00ce 5D4D     		ldr	r5, .L134+4
 1050 00d0 05EB0115 		add	r5, r5, r1, lsl #4
 1051 00d4 2C5D     		ldrb	r4, [r5, r4]	@ zero_extendqisi2
 1052 00d6 9C42     		cmp	r4, r3
 1053 00d8 0AD2     		bcs	.L99
 305:Src/maze.c    **** 					if( maze.wall_north[position.x][position.y] == false ){
 1054              		.loc 1 305 0
 1055 00da 0E2A     		cmp	r2, #14
 1056 00dc 08D8     		bhi	.L99
 306:Src/maze.c    **** 						tmp_step = maze.step[position.x][position.y+1];
 1057              		.loc 1 306 0
 1058 00de 594D     		ldr	r5, .L134+4
 1059 00e0 05EB0115 		add	r5, r5, r1, lsl #4
 1060 00e4 1544     		add	r5, r5, r2
 1061 00e6 95F80052 		ldrb	r5, [r5, #512]	@ zero_extendqisi2
 1062 00ea 0DB9     		cbnz	r5, .L99
 307:Src/maze.c    **** 						tmp_dir = LEFT;
 1063              		.loc 1 307 0
 1064 00ec 2346     		mov	r3, r4
 1065              	.LVL60:
 308:Src/maze.c    **** 					}
 1066              		.loc 1 308 0
 1067 00ee 0120     		movs	r0, #1
 1068              	.LVL61:
 1069              	.L99:
 312:Src/maze.c    **** 				if( position.y > 0 ){
 1070              		.loc 1 312 0
 1071 00f0 541E     		subs	r4, r2, #1
 1072 00f2 544D     		ldr	r5, .L134+4
 1073 00f4 05EB0115 		add	r5, r5, r1, lsl #4
 1074 00f8 2C5D     		ldrb	r4, [r5, r4]	@ zero_extendqisi2
 1075 00fa 9C42     		cmp	r4, r3
 1076 00fc 0AD2     		bcs	.L100
 313:Src/maze.c    **** 					if( maze.wall_south[position.x][position.y] == false ){
 1077              		.loc 1 313 0
 1078 00fe 4AB1     		cbz	r2, .L100
 314:Src/maze.c    **** 						tmp_step = maze.step[position.x][position.y-1];
 1079              		.loc 1 314 0
 1080 0100 504D     		ldr	r5, .L134+4
 1081 0102 05EB0111 		add	r1, r5, r1, lsl #4
 1082 0106 0A44     		add	r2, r2, r1
 1083 0108 92F80024 		ldrb	r2, [r2, #1024]	@ zero_extendqisi2
 1084 010c 12B9     		cbnz	r2, .L100
 315:Src/maze.c    **** 						tmp_dir = RIGHT;
 1085              		.loc 1 315 0
 1086 010e 2346     		mov	r3, r4
 1087              	.LVL62:
 316:Src/maze.c    **** 					}
 1088              		.loc 1 316 0
 1089 0110 4FF0FF30 		mov	r0, #-1
 1090              	.LVL63:
ARM GAS  C:\Users\kotaro\AppData\Local\Temp\ccaEAuGP.s 			page 28


 1091              	.L100:
 320:Src/maze.c    **** 				tmp_dir = UTURN;
 1092              		.loc 1 320 0
 1093 0114 FE2B     		cmp	r3, #254
 1094 0116 BAD1     		bne	.L89
 321:Src/maze.c    **** 			}
 1095              		.loc 1 321 0
 1096 0118 0220     		movs	r0, #2
 1097              	.LVL64:
 1098 011a B8E7     		b	.L89
 1099              	.LVL65:
 1100              	.L115:
 262:Src/maze.c    **** 	// 現在の向きに応じて場合分けし、 歩数が少ない方向を判断
 1101              		.loc 1 262 0
 1102 011c 0220     		movs	r0, #2
 261:Src/maze.c    **** 	int8_t tmp_dir = UTURN;				// 方向
 1103              		.loc 1 261 0
 1104 011e FE23     		movs	r3, #254
 1105 0120 D4E7     		b	.L98
 1106              	.L116:
 300:Src/maze.c    **** 					}
 1107              		.loc 1 300 0
 1108 0122 0020     		movs	r0, #0
 1109 0124 D2E7     		b	.L98
 1110              	.L93:
 325:Src/maze.c    **** 				if( position.y > 0 ){
 1111              		.loc 1 325 0
 1112 0126 464B     		ldr	r3, .L134
 1113 0128 1A78     		ldrb	r2, [r3]	@ zero_extendqisi2
 1114 012a 5978     		ldrb	r1, [r3, #1]	@ zero_extendqisi2
 1115 012c 481E     		subs	r0, r1, #1
 1116 012e 454B     		ldr	r3, .L134+4
 1117 0130 03EB0213 		add	r3, r3, r2, lsl #4
 1118 0134 1B5C     		ldrb	r3, [r3, r0]	@ zero_extendqisi2
 1119 0136 FD2B     		cmp	r3, #253
 1120 0138 0AD8     		bhi	.L120
 326:Src/maze.c    **** 					if( maze.wall_south[position.x][position.y] == false ){
 1121              		.loc 1 326 0
 1122 013a 91B3     		cbz	r1, .L121
 327:Src/maze.c    **** 						tmp_step = maze.step[position.x][position.y-1];
 1123              		.loc 1 327 0
 1124 013c 4148     		ldr	r0, .L134+4
 1125 013e 00EB0210 		add	r0, r0, r2, lsl #4
 1126 0142 0844     		add	r0, r0, r1
 1127 0144 90F80004 		ldrb	r0, [r0, #1024]	@ zero_extendqisi2
 1128 0148 70B3     		cbz	r0, .L122
 262:Src/maze.c    **** 	// 現在の向きに応じて場合分けし、 歩数が少ない方向を判断
 1129              		.loc 1 262 0
 1130 014a 0220     		movs	r0, #2
 261:Src/maze.c    **** 	int8_t tmp_dir = UTURN;				// 方向
 1131              		.loc 1 261 0
 1132 014c FE23     		movs	r3, #254
 1133 014e 01E0     		b	.L101
 1134              	.L120:
 262:Src/maze.c    **** 	// 現在の向きに応じて場合分けし、 歩数が少ない方向を判断
 1135              		.loc 1 262 0
 1136 0150 0220     		movs	r0, #2
ARM GAS  C:\Users\kotaro\AppData\Local\Temp\ccaEAuGP.s 			page 29


 261:Src/maze.c    **** 	int8_t tmp_dir = UTURN;				// 方向
 1137              		.loc 1 261 0
 1138 0152 FE23     		movs	r3, #254
 1139              	.L101:
 1140              	.LVL66:
 333:Src/maze.c    **** 				if( position.x < MAZE_SIZE){
 1141              		.loc 1 333 0
 1142 0154 541C     		adds	r4, r2, #1
 1143 0156 3B4D     		ldr	r5, .L134+4
 1144 0158 05EB0414 		add	r4, r5, r4, lsl #4
 1145 015c 645C     		ldrb	r4, [r4, r1]	@ zero_extendqisi2
 1146 015e 9C42     		cmp	r4, r3
 1147 0160 09D2     		bcs	.L102
 334:Src/maze.c    **** 					if( maze.wall_east[position.x][position.y] == false ){
 1148              		.loc 1 334 0
 1149 0162 0E2A     		cmp	r2, #14
 1150 0164 07D8     		bhi	.L102
 335:Src/maze.c    **** 						tmp_step = maze.step[position.x+1][position.y];
 1151              		.loc 1 335 0
 1152 0166 05EB0215 		add	r5, r5, r2, lsl #4
 1153 016a 0D44     		add	r5, r5, r1
 1154 016c 95F80053 		ldrb	r5, [r5, #768]	@ zero_extendqisi2
 1155 0170 0DB9     		cbnz	r5, .L102
 336:Src/maze.c    **** 						tmp_dir = LEFT;
 1156              		.loc 1 336 0
 1157 0172 2346     		mov	r3, r4
 1158              	.LVL67:
 337:Src/maze.c    **** 					}
 1159              		.loc 1 337 0
 1160 0174 0120     		movs	r0, #1
 1161              	.LVL68:
 1162              	.L102:
 341:Src/maze.c    **** 				if( position.x > 0 ){
 1163              		.loc 1 341 0
 1164 0176 541E     		subs	r4, r2, #1
 1165 0178 324D     		ldr	r5, .L134+4
 1166 017a 05EB0414 		add	r4, r5, r4, lsl #4
 1167 017e 645C     		ldrb	r4, [r4, r1]	@ zero_extendqisi2
 1168 0180 9C42     		cmp	r4, r3
 1169 0182 09D2     		bcs	.L103
 342:Src/maze.c    **** 					if( maze.wall_west[position.x][position.y] == false ){
 1170              		.loc 1 342 0
 1171 0184 42B1     		cbz	r2, .L103
 343:Src/maze.c    **** 						tmp_step = maze.step[position.x-1][position.y];
 1172              		.loc 1 343 0
 1173 0186 05EB0212 		add	r2, r5, r2, lsl #4
 1174 018a 1144     		add	r1, r1, r2
 1175 018c 91F80025 		ldrb	r2, [r1, #1280]	@ zero_extendqisi2
 1176 0190 12B9     		cbnz	r2, .L103
 344:Src/maze.c    **** 						tmp_dir = RIGHT;
 1177              		.loc 1 344 0
 1178 0192 2346     		mov	r3, r4
 1179              	.LVL69:
 345:Src/maze.c    **** 					}
 1180              		.loc 1 345 0
 1181 0194 4FF0FF30 		mov	r0, #-1
 1182              	.LVL70:
ARM GAS  C:\Users\kotaro\AppData\Local\Temp\ccaEAuGP.s 			page 30


 1183              	.L103:
 349:Src/maze.c    **** 				tmp_dir = UTURN;
 1184              		.loc 1 349 0
 1185 0198 FE2B     		cmp	r3, #254
 1186 019a 7FF478AF 		bne	.L89
 350:Src/maze.c    **** 			}
 1187              		.loc 1 350 0
 1188 019e 0220     		movs	r0, #2
 1189              	.LVL71:
 1190 01a0 75E7     		b	.L89
 1191              	.LVL72:
 1192              	.L121:
 262:Src/maze.c    **** 	// 現在の向きに応じて場合分けし、 歩数が少ない方向を判断
 1193              		.loc 1 262 0
 1194 01a2 0220     		movs	r0, #2
 261:Src/maze.c    **** 	int8_t tmp_dir = UTURN;				// 方向
 1195              		.loc 1 261 0
 1196 01a4 FE23     		movs	r3, #254
 1197 01a6 D5E7     		b	.L101
 1198              	.L122:
 329:Src/maze.c    **** 				}
 1199              		.loc 1 329 0
 1200 01a8 0020     		movs	r0, #0
 1201 01aa D3E7     		b	.L101
 1202              	.L94:
 354:Src/maze.c    **** 				if( position.x > 0 ){
 1203              		.loc 1 354 0
 1204 01ac 244A     		ldr	r2, .L134
 1205 01ae 1178     		ldrb	r1, [r2]	@ zero_extendqisi2
 1206 01b0 481E     		subs	r0, r1, #1
 1207 01b2 5278     		ldrb	r2, [r2, #1]	@ zero_extendqisi2
 1208 01b4 234B     		ldr	r3, .L134+4
 1209 01b6 03EB0013 		add	r3, r3, r0, lsl #4
 1210 01ba 9B5C     		ldrb	r3, [r3, r2]	@ zero_extendqisi2
 1211 01bc FD2B     		cmp	r3, #253
 1212 01be 0AD8     		bhi	.L126
 355:Src/maze.c    **** 					if( maze.wall_west[position.x][position.y] == false ){
 1213              		.loc 1 355 0
 1214 01c0 A1B3     		cbz	r1, .L127
 356:Src/maze.c    **** 						tmp_step = maze.step[position.x-1][position.y];
 1215              		.loc 1 356 0
 1216 01c2 2048     		ldr	r0, .L134+4
 1217 01c4 00EB0110 		add	r0, r0, r1, lsl #4
 1218 01c8 1044     		add	r0, r0, r2
 1219 01ca 90F80005 		ldrb	r0, [r0, #1280]	@ zero_extendqisi2
 1220 01ce 80B3     		cbz	r0, .L128
 262:Src/maze.c    **** 	// 現在の向きに応じて場合分けし、 歩数が少ない方向を判断
 1221              		.loc 1 262 0
 1222 01d0 0220     		movs	r0, #2
 261:Src/maze.c    **** 	int8_t tmp_dir = UTURN;				// 方向
 1223              		.loc 1 261 0
 1224 01d2 FE23     		movs	r3, #254
 1225 01d4 01E0     		b	.L104
 1226              	.L126:
 262:Src/maze.c    **** 	// 現在の向きに応じて場合分けし、 歩数が少ない方向を判断
 1227              		.loc 1 262 0
 1228 01d6 0220     		movs	r0, #2
ARM GAS  C:\Users\kotaro\AppData\Local\Temp\ccaEAuGP.s 			page 31


 261:Src/maze.c    **** 	int8_t tmp_dir = UTURN;				// 方向
 1229              		.loc 1 261 0
 1230 01d8 FE23     		movs	r3, #254
 1231              	.L104:
 1232              	.LVL73:
 362:Src/maze.c    **** 				if( position.y > 0 ){
 1233              		.loc 1 362 0
 1234 01da 541E     		subs	r4, r2, #1
 1235 01dc 194D     		ldr	r5, .L134+4
 1236 01de 05EB0115 		add	r5, r5, r1, lsl #4
 1237 01e2 2C5D     		ldrb	r4, [r5, r4]	@ zero_extendqisi2
 1238 01e4 9C42     		cmp	r4, r3
 1239 01e6 09D2     		bcs	.L105
 363:Src/maze.c    **** 					if( maze.wall_south[position.x][position.y] == false ){
 1240              		.loc 1 363 0
 1241 01e8 42B1     		cbz	r2, .L105
 364:Src/maze.c    **** 						tmp_step = maze.step[position.x][position.y-1];
 1242              		.loc 1 364 0
 1243 01ea 164D     		ldr	r5, .L134+4
 1244 01ec 05EB0115 		add	r5, r5, r1, lsl #4
 1245 01f0 1544     		add	r5, r5, r2
 1246 01f2 95F80054 		ldrb	r5, [r5, #1024]	@ zero_extendqisi2
 1247 01f6 0DB9     		cbnz	r5, .L105
 365:Src/maze.c    **** 						tmp_dir = LEFT;
 1248              		.loc 1 365 0
 1249 01f8 2346     		mov	r3, r4
 1250              	.LVL74:
 366:Src/maze.c    **** 					}
 1251              		.loc 1 366 0
 1252 01fa 0120     		movs	r0, #1
 1253              	.LVL75:
 1254              	.L105:
 370:Src/maze.c    **** 				if( position.y < MAZE_SIZE ){
 1255              		.loc 1 370 0
 1256 01fc 541C     		adds	r4, r2, #1
 1257 01fe 114D     		ldr	r5, .L134+4
 1258 0200 05EB0115 		add	r5, r5, r1, lsl #4
 1259 0204 2C5D     		ldrb	r4, [r5, r4]	@ zero_extendqisi2
 1260 0206 9C42     		cmp	r4, r3
 1261 0208 0BD2     		bcs	.L106
 371:Src/maze.c    **** 					if( maze.wall_north[position.x][position.y] == false ){
 1262              		.loc 1 371 0
 1263 020a 0E2A     		cmp	r2, #14
 1264 020c 09D8     		bhi	.L106
 372:Src/maze.c    **** 						tmp_step = maze.step[position.x][position.y+1];
 1265              		.loc 1 372 0
 1266 020e 0D4D     		ldr	r5, .L134+4
 1267 0210 05EB0111 		add	r1, r5, r1, lsl #4
 1268 0214 0A44     		add	r2, r2, r1
 1269 0216 92F80022 		ldrb	r2, [r2, #512]	@ zero_extendqisi2
 1270 021a 12B9     		cbnz	r2, .L106
 373:Src/maze.c    **** 						tmp_dir = RIGHT;
 1271              		.loc 1 373 0
 1272 021c 2346     		mov	r3, r4
 1273              	.LVL76:
 374:Src/maze.c    **** 					}
 1274              		.loc 1 374 0
ARM GAS  C:\Users\kotaro\AppData\Local\Temp\ccaEAuGP.s 			page 32


 1275 021e 4FF0FF30 		mov	r0, #-1
 1276              	.LVL77:
 1277              	.L106:
 378:Src/maze.c    **** 				tmp_dir = UTURN;
 1278              		.loc 1 378 0
 1279 0222 FE2B     		cmp	r3, #254
 1280 0224 7FF433AF 		bne	.L89
 379:Src/maze.c    **** 			}
 1281              		.loc 1 379 0
 1282 0228 0220     		movs	r0, #2
 1283              	.LVL78:
 1284 022a 30E7     		b	.L89
 1285              	.LVL79:
 1286              	.L127:
 262:Src/maze.c    **** 	// 現在の向きに応じて場合分けし、 歩数が少ない方向を判断
 1287              		.loc 1 262 0
 1288 022c 0220     		movs	r0, #2
 261:Src/maze.c    **** 	int8_t tmp_dir = UTURN;				// 方向
 1289              		.loc 1 261 0
 1290 022e FE23     		movs	r3, #254
 1291 0230 D3E7     		b	.L104
 1292              	.L128:
 358:Src/maze.c    **** 					}
 1293              		.loc 1 358 0
 1294 0232 0020     		movs	r0, #0
 1295 0234 D1E7     		b	.L104
 1296              	.L107:
 262:Src/maze.c    **** 	// 現在の向きに応じて場合分けし、 歩数が少ない方向を判断
 1297              		.loc 1 262 0
 1298 0236 0220     		movs	r0, #2
 1299 0238 29E7     		b	.L89
 1300              	.LVL80:
 1301              	.L133:
 292:Src/maze.c    **** 			}
 1302              		.loc 1 292 0
 1303 023a 0220     		movs	r0, #2
 1304              	.LVL81:
 1305 023c 27E7     		b	.L89
 1306              	.L135:
 1307 023e 00BF     		.align	2
 1308              	.L134:
 1309 0240 00000000 		.word	position
 1310 0244 00000000 		.word	maze
 1311              		.cfi_endproc
 1312              	.LFE131:
 1314              		.section	.text.MAZE_Printf_Step,"ax",%progbits
 1315              		.align	1
 1316              		.global	MAZE_Printf_Step
 1317              		.syntax unified
 1318              		.thumb
 1319              		.thumb_func
 1320              		.fpu fpv4-sp-d16
 1322              	MAZE_Printf_Step:
 1323              	.LFB132:
 387:Src/maze.c    **** 
 388:Src/maze.c    **** /**************************************************************************************************
 389:Src/maze.c    ****  * outline : output step
ARM GAS  C:\Users\kotaro\AppData\Local\Temp\ccaEAuGP.s 			page 33


 390:Src/maze.c    ****  * argument : void
 391:Src/maze.c    ****  * return : void
 392:Src/maze.c    **** ***************************************************************************************************
 393:Src/maze.c    **** void MAZE_Printf_Step(void) {
 1324              		.loc 1 393 0
 1325              		.cfi_startproc
 1326              		@ args = 0, pretend = 0, frame = 0
 1327              		@ frame_needed = 0, uses_anonymous_args = 0
 1328 0000 38B5     		push	{r3, r4, r5, lr}
 1329              	.LCFI10:
 1330              		.cfi_def_cfa_offset 16
 1331              		.cfi_offset 3, -16
 1332              		.cfi_offset 4, -12
 1333              		.cfi_offset 5, -8
 1334              		.cfi_offset 14, -4
 1335              	.LVL82:
 394:Src/maze.c    **** 	int i=0;
 395:Src/maze.c    **** 	for (i = 0; i <= MAZE_SIZE; i++)
 1336              		.loc 1 395 0
 1337 0002 0025     		movs	r5, #0
 1338 0004 38E0     		b	.L137
 1339              	.LVL83:
 1340              	.L151:
 1341              	.LBB13:
 396:Src/maze.c    **** 	{
 397:Src/maze.c    **** 		int j;
 398:Src/maze.c    **** 		for (j = 0; j <= MAZE_SIZE; j++)
 399:Src/maze.c    **** 		{
 400:Src/maze.c    **** 			printf("+");
 401:Src/maze.c    **** 			if (maze.wall_west[i][j] == 1)
 402:Src/maze.c    **** 			{
 403:Src/maze.c    **** 				printf("---");
 1342              		.loc 1 403 0
 1343 0006 2648     		ldr	r0, .L155
 1344 0008 FFF7FEFF 		bl	printf
 1345              	.LVL84:
 1346              	.L139:
 398:Src/maze.c    **** 		{
 1347              		.loc 1 398 0 discriminator 2
 1348 000c 0134     		adds	r4, r4, #1
 1349              	.LVL85:
 1350              	.L145:
 398:Src/maze.c    **** 		{
 1351              		.loc 1 398 0 is_stmt 0 discriminator 1
 1352 000e 0F2C     		cmp	r4, #15
 1353 0010 10DC     		bgt	.L150
 400:Src/maze.c    **** 			if (maze.wall_west[i][j] == 1)
 1354              		.loc 1 400 0 is_stmt 1
 1355 0012 2B20     		movs	r0, #43
 1356 0014 FFF7FEFF 		bl	putchar
 1357              	.LVL86:
 401:Src/maze.c    **** 			{
 1358              		.loc 1 401 0
 1359 0018 224B     		ldr	r3, .L155+4
 1360 001a 03EB0513 		add	r3, r3, r5, lsl #4
 1361 001e 2344     		add	r3, r3, r4
 1362 0020 93F80035 		ldrb	r3, [r3, #1280]	@ zero_extendqisi2
ARM GAS  C:\Users\kotaro\AppData\Local\Temp\ccaEAuGP.s 			page 34


 1363 0024 012B     		cmp	r3, #1
 1364 0026 EED0     		beq	.L151
 404:Src/maze.c    **** 			}
 405:Src/maze.c    **** 			else if(maze.wall_west[i][j] == 0)
 1365              		.loc 1 405 0
 1366 0028 002B     		cmp	r3, #0
 1367 002a EFD1     		bne	.L139
 406:Src/maze.c    **** 			{
 407:Src/maze.c    **** 				printf("   ");
 1368              		.loc 1 407 0
 1369 002c 1E48     		ldr	r0, .L155+8
 1370 002e FFF7FEFF 		bl	printf
 1371              	.LVL87:
 1372 0032 EBE7     		b	.L139
 1373              	.L150:
 408:Src/maze.c    **** 			}
 409:Src/maze.c    **** 		}
 410:Src/maze.c    **** 		printf("+\r\n");
 1374              		.loc 1 410 0
 1375 0034 1D48     		ldr	r0, .L155+12
 1376 0036 FFF7FEFF 		bl	puts
 1377              	.LVL88:
 411:Src/maze.c    **** 		for (j = 0; j <= MAZE_SIZE; j++)
 1378              		.loc 1 411 0
 1379 003a 0024     		movs	r4, #0
 1380 003c 0AE0     		b	.L141
 1381              	.LVL89:
 1382              	.L153:
 412:Src/maze.c    **** 		{
 413:Src/maze.c    **** 			if (maze.wall_south[i][j] == 1)
 414:Src/maze.c    **** 			{
 415:Src/maze.c    **** 				printf("|");
 1383              		.loc 1 415 0
 1384 003e 7C20     		movs	r0, #124
 1385 0040 FFF7FEFF 		bl	putchar
 1386              	.LVL90:
 1387              	.L143:
 416:Src/maze.c    **** 			}
 417:Src/maze.c    **** 			else
 418:Src/maze.c    **** 			{
 419:Src/maze.c    **** 				printf(" ");
 420:Src/maze.c    **** 			}
 421:Src/maze.c    **** 			printf("%3d", maze.step[i][j]);
 1388              		.loc 1 421 0 discriminator 2
 1389 0044 174B     		ldr	r3, .L155+4
 1390 0046 03EB0513 		add	r3, r3, r5, lsl #4
 1391 004a 195D     		ldrb	r1, [r3, r4]	@ zero_extendqisi2
 1392 004c 1848     		ldr	r0, .L155+16
 1393 004e FFF7FEFF 		bl	printf
 1394              	.LVL91:
 411:Src/maze.c    **** 		{
 1395              		.loc 1 411 0 discriminator 2
 1396 0052 0134     		adds	r4, r4, #1
 1397              	.LVL92:
 1398              	.L141:
 411:Src/maze.c    **** 		{
 1399              		.loc 1 411 0 is_stmt 0 discriminator 1
ARM GAS  C:\Users\kotaro\AppData\Local\Temp\ccaEAuGP.s 			page 35


 1400 0054 0F2C     		cmp	r4, #15
 1401 0056 0BDC     		bgt	.L152
 413:Src/maze.c    **** 			{
 1402              		.loc 1 413 0 is_stmt 1
 1403 0058 124B     		ldr	r3, .L155+4
 1404 005a 03EB0513 		add	r3, r3, r5, lsl #4
 1405 005e 2344     		add	r3, r3, r4
 1406 0060 93F80034 		ldrb	r3, [r3, #1024]	@ zero_extendqisi2
 1407 0064 012B     		cmp	r3, #1
 1408 0066 EAD0     		beq	.L153
 419:Src/maze.c    **** 			}
 1409              		.loc 1 419 0
 1410 0068 2020     		movs	r0, #32
 1411 006a FFF7FEFF 		bl	putchar
 1412              	.LVL93:
 1413 006e E9E7     		b	.L143
 1414              	.L152:
 422:Src/maze.c    **** 		}
 423:Src/maze.c    **** 		printf("|\r\n");
 1415              		.loc 1 423 0 discriminator 2
 1416 0070 1048     		ldr	r0, .L155+20
 1417 0072 FFF7FEFF 		bl	puts
 1418              	.LVL94:
 1419              	.LBE13:
 395:Src/maze.c    **** 	{
 1420              		.loc 1 395 0 discriminator 2
 1421 0076 0135     		adds	r5, r5, #1
 1422              	.LVL95:
 1423              	.L137:
 395:Src/maze.c    **** 	{
 1424              		.loc 1 395 0 is_stmt 0 discriminator 1
 1425 0078 0F2D     		cmp	r5, #15
 1426 007a 01DC     		bgt	.L154
 1427              	.LBB14:
 398:Src/maze.c    **** 		{
 1428              		.loc 1 398 0 is_stmt 1
 1429 007c 0024     		movs	r4, #0
 1430 007e C6E7     		b	.L145
 1431              	.L154:
 1432              	.LBE14:
 424:Src/maze.c    **** 	}
 425:Src/maze.c    **** 	for (i = 0; i <= MAZE_SIZE; i++)
 1433              		.loc 1 425 0
 1434 0080 0024     		movs	r4, #0
 1435 0082 06E0     		b	.L146
 1436              	.LVL96:
 1437              	.L147:
 426:Src/maze.c    **** 	{
 427:Src/maze.c    **** 		printf("+");
 1438              		.loc 1 427 0 discriminator 3
 1439 0084 2B20     		movs	r0, #43
 1440 0086 FFF7FEFF 		bl	putchar
 1441              	.LVL97:
 428:Src/maze.c    **** 		printf("---");
 1442              		.loc 1 428 0 discriminator 3
 1443 008a 0548     		ldr	r0, .L155
 1444 008c FFF7FEFF 		bl	printf
ARM GAS  C:\Users\kotaro\AppData\Local\Temp\ccaEAuGP.s 			page 36


 1445              	.LVL98:
 425:Src/maze.c    **** 	{
 1446              		.loc 1 425 0 discriminator 3
 1447 0090 0134     		adds	r4, r4, #1
 1448              	.LVL99:
 1449              	.L146:
 425:Src/maze.c    **** 	{
 1450              		.loc 1 425 0 is_stmt 0 discriminator 1
 1451 0092 0F2C     		cmp	r4, #15
 1452 0094 F6DD     		ble	.L147
 429:Src/maze.c    **** 	}
 430:Src/maze.c    **** 	printf("+\r\n\n");
 1453              		.loc 1 430 0 is_stmt 1
 1454 0096 0848     		ldr	r0, .L155+24
 1455 0098 FFF7FEFF 		bl	puts
 1456              	.LVL100:
 431:Src/maze.c    **** }
 1457              		.loc 1 431 0
 1458 009c 38BD     		pop	{r3, r4, r5, pc}
 1459              	.LVL101:
 1460              	.L156:
 1461 009e 00BF     		.align	2
 1462              	.L155:
 1463 00a0 00000000 		.word	.LC0
 1464 00a4 00000000 		.word	maze
 1465 00a8 04000000 		.word	.LC1
 1466 00ac 08000000 		.word	.LC2
 1467 00b0 0C000000 		.word	.LC3
 1468 00b4 10000000 		.word	.LC4
 1469 00b8 14000000 		.word	.LC5
 1470              		.cfi_endproc
 1471              	.LFE132:
 1473              		.section	.text.Maze_GoalCheck,"ax",%progbits
 1474              		.align	1
 1475              		.global	Maze_GoalCheck
 1476              		.syntax unified
 1477              		.thumb
 1478              		.thumb_func
 1479              		.fpu fpv4-sp-d16
 1481              	Maze_GoalCheck:
 1482              	.LFB133:
 432:Src/maze.c    **** 
 433:Src/maze.c    **** void Maze_GoalCheck(uint8_t flag_goal_is){
 1483              		.loc 1 433 0
 1484              		.cfi_startproc
 1485              		@ args = 0, pretend = 0, frame = 0
 1486              		@ frame_needed = 0, uses_anonymous_args = 0
 1487              		@ link register save eliminated.
 1488              	.LVL102:
 434:Src/maze.c    **** 	if(position.x==mazeDef.maze_goal_x && position.y==mazeDef.maze_goal_y){
 435:Src/maze.c    **** 		flag_goal_is = true;
 436:Src/maze.c    **** 	}
 437:Src/maze.c    **** }...
 1489              		.loc 1 437 0
 1490 0000 7047     		bx	lr
 1491              		.cfi_endproc
 1492              	.LFE133:
ARM GAS  C:\Users\kotaro\AppData\Local\Temp\ccaEAuGP.s 			page 37


 1494              		.comm	maze,1793,4
 1495              		.comm	mazeDef,2,4
 1496              		.section	.rodata.MAZE_Printf_Step.str1.4,"aMS",%progbits,1
 1497              		.align	2
 1498              	.LC0:
 1499 0000 2D2D2D00 		.ascii	"---\000"
 1500              	.LC1:
 1501 0004 20202000 		.ascii	"   \000"
 1502              	.LC2:
 1503 0008 2B0D00   		.ascii	"+\015\000"
 1504 000b 00       		.space	1
 1505              	.LC3:
 1506 000c 25336400 		.ascii	"%3d\000"
 1507              	.LC4:
 1508 0010 7C0D00   		.ascii	"|\015\000"
 1509 0013 00       		.space	1
 1510              	.LC5:
 1511 0014 2B0D0A00 		.ascii	"+\015\012\000"
 1512              		.text
 1513              	.Letext0:
 1514              		.file 2 "c:\\program files (x86)\\gnu tools arm embedded\\7 2017-q4-major\\arm-none-eabi\\include\
 1515              		.file 3 "c:\\program files (x86)\\gnu tools arm embedded\\7 2017-q4-major\\arm-none-eabi\\include\
 1516              		.file 4 "Inc/maze.h"
 1517              		.file 5 "Drivers/CMSIS/Include/core_cm4.h"
 1518              		.file 6 "Drivers/CMSIS/Device/ST/STM32F4xx/Include/system_stm32f4xx.h"
 1519              		.file 7 "c:\\program files (x86)\\gnu tools arm embedded\\7 2017-q4-major\\arm-none-eabi\\include\
 1520              		.file 8 "c:\\program files (x86)\\gnu tools arm embedded\\7 2017-q4-major\\arm-none-eabi\\include\
 1521              		.file 9 "c:\\program files (x86)\\gnu tools arm embedded\\7 2017-q4-major\\lib\\gcc\\arm-none-eabi
 1522              		.file 10 "c:\\program files (x86)\\gnu tools arm embedded\\7 2017-q4-major\\arm-none-eabi\\include
 1523              		.file 11 "Inc/global.h"
 1524              		.file 12 "<built-in>"
 1525              		.file 13 "c:\\program files (x86)\\gnu tools arm embedded\\7 2017-q4-major\\arm-none-eabi\\include
ARM GAS  C:\Users\kotaro\AppData\Local\Temp\ccaEAuGP.s 			page 38

