ARM GAS  C:\Users\kotaro\AppData\Local\Temp\ccM9i9Pf.s 			page 1


   1              		.cpu cortex-m4
   2              		.eabi_attribute 27, 1
   3              		.eabi_attribute 28, 1
   4              		.eabi_attribute 20, 1
   5              		.eabi_attribute 21, 1
   6              		.eabi_attribute 23, 3
   7              		.eabi_attribute 24, 1
   8              		.eabi_attribute 25, 1
   9              		.eabi_attribute 26, 1
  10              		.eabi_attribute 30, 1
  11              		.eabi_attribute 34, 1
  12              		.eabi_attribute 18, 4
  13              		.file	"mode.c"
  14              		.text
  15              	.Ltext0:
  16              		.cfi_sections	.debug_frame
  17              		.section	.text.Mode_select,"ax",%progbits
  18              		.align	1
  19              		.global	Mode_select
  20              		.syntax unified
  21              		.thumb
  22              		.thumb_func
  23              		.fpu fpv4-sp-d16
  25              	Mode_select:
  26              	.LFB126:
  27              		.file 1 "Src/mode.c"
   1:Src/mode.c    **** #include "mode.h"
   2:Src/mode.c    **** #include "global.h"
   3:Src/mode.c    **** #include "gpio.h"
   4:Src/mode.c    **** #include "tim.h"
   5:Src/mode.c    **** #include "motion.h"
   6:Src/mode.c    **** #include "control.h"
   7:Src/mode.c    **** 
   8:Src/mode.c    **** maze_t maze;
   9:Src/mode.c    **** 
  10:Src/mode.c    **** 
  11:Src/mode.c    **** /****************************************************************************************
  12:Src/mode.c    ****  * outline  : return mode nomber
  13:Src/mode.c    ****  * argument : void
  14:Src/mode.c    ****  * return   : mode nomber 
  15:Src/mode.c    **** ********************************************************************************************/
  16:Src/mode.c    **** uint8_t Mode_select(void){
  28              		.loc 1 16 0
  29              		.cfi_startproc
  30              		@ args = 0, pretend = 0, frame = 0
  31              		@ frame_needed = 0, uses_anonymous_args = 0
  32 0000 10B5     		push	{r4, lr}
  33              	.LCFI0:
  34              		.cfi_def_cfa_offset 8
  35              		.cfi_offset 4, -8
  36              		.cfi_offset 14, -4
  37              	.LVL0:
  17:Src/mode.c    ****     uint8_t mode=0;
  18:Src/mode.c    ****     flag.ir_led = ON;
  38              		.loc 1 18 0
  39 0002 1A4B     		ldr	r3, .L8
  40 0004 0122     		movs	r2, #1
ARM GAS  C:\Users\kotaro\AppData\Local\Temp\ccM9i9Pf.s 			page 2


  41 0006 DA80     		strh	r2, [r3, #6]	@ movhi
  17:Src/mode.c    ****     uint8_t mode=0;
  42              		.loc 1 17 0
  43 0008 0024     		movs	r4, #0
  44 000a 07E0     		b	.L4
  45              	.LVL1:
  46              	.L2:
  19:Src/mode.c    ****     while(1){
  20:Src/mode.c    ****         if((int16_t)enc.distance_l % 30 == 29){
  21:Src/mode.c    ****             mode ++;
  22:Src/mode.c    ****             Output_Buzzer(160-10*mode);
  23:Src/mode.c    ****         }
  24:Src/mode.c    ****         if(Push()==ON){
  47              		.loc 1 24 0
  48 000c FFF7FEFF 		bl	Push
  49              	.LVL2:
  50 0010 0128     		cmp	r0, #1
  51 0012 26D0     		beq	.L6
  25:Src/mode.c    ****             Output_Buzzer(HZ_C_H);
  26:Src/mode.c    ****             break;
  27:Src/mode.c    ****         }
  28:Src/mode.c    ****         printf("%d\r",mode);
  52              		.loc 1 28 0
  53 0014 2146     		mov	r1, r4
  54 0016 1648     		ldr	r0, .L8+4
  55 0018 FFF7FEFF 		bl	printf
  56              	.LVL3:
  57              	.L4:
  20:Src/mode.c    ****             mode ++;
  58              		.loc 1 20 0
  59 001c 154B     		ldr	r3, .L8+8
  60 001e D3ED057A 		vldr.32	s15, [r3, #20]
  61 0022 FDEEE77A 		vcvt.s32.f32	s15, s15
  62 0026 17EE903A 		vmov	r3, s15	@ int
  63 002a 1BB2     		sxth	r3, r3
  64 002c 124A     		ldr	r2, .L8+12
  65 002e 82FB0312 		smull	r1, r2, r2, r3
  66 0032 D118     		adds	r1, r2, r3
  67 0034 DA17     		asrs	r2, r3, #31
  68 0036 C2EB2112 		rsb	r2, r2, r1, asr #4
  69 003a C2EB0212 		rsb	r2, r2, r2, lsl #4
  70 003e 5100     		lsls	r1, r2, #1
  71 0040 5B1A     		subs	r3, r3, r1
  72 0042 1BB2     		sxth	r3, r3
  73 0044 1D2B     		cmp	r3, #29
  74 0046 E1D1     		bne	.L2
  21:Src/mode.c    ****             Output_Buzzer(160-10*mode);
  75              		.loc 1 21 0
  76 0048 0134     		adds	r4, r4, #1
  77              	.LVL4:
  78 004a E4B2     		uxtb	r4, r4
  79              	.LVL5:
  22:Src/mode.c    ****         }
  80              		.loc 1 22 0
  81 004c C4EB4413 		rsb	r3, r4, r4, lsl #5
  82 0050 C4EB8303 		rsb	r3, r4, r3, lsl #2
  83 0054 5800     		lsls	r0, r3, #1
ARM GAS  C:\Users\kotaro\AppData\Local\Temp\ccM9i9Pf.s 			page 3


  84 0056 6038     		subs	r0, r0, #96
  85 0058 00F0FE00 		and	r0, r0, #254
  86 005c FFF7FEFF 		bl	Output_Buzzer
  87              	.LVL6:
  88 0060 D4E7     		b	.L2
  89              	.L6:
  25:Src/mode.c    ****             break;
  90              		.loc 1 25 0
  91 0062 4C20     		movs	r0, #76
  92 0064 FFF7FEFF 		bl	Output_Buzzer
  93              	.LVL7:
  29:Src/mode.c    ****     }
  30:Src/mode.c    ****     return mode;
  31:Src/mode.c    **** }
  94              		.loc 1 31 0
  95 0068 2046     		mov	r0, r4
  96 006a 10BD     		pop	{r4, pc}
  97              	.LVL8:
  98              	.L9:
  99              		.align	2
 100              	.L8:
 101 006c 00000000 		.word	flag
 102 0070 00000000 		.word	.LC0
 103 0074 00000000 		.word	enc
 104 0078 89888888 		.word	-2004318071
 105              		.cfi_endproc
 106              	.LFE126:
 108              		.section	.text.Mode_mouse,"ax",%progbits
 109              		.align	1
 110              		.global	Mode_mouse
 111              		.syntax unified
 112              		.thumb
 113              		.thumb_func
 114              		.fpu fpv4-sp-d16
 116              	Mode_mouse:
 117              	.LFB127:
  32:Src/mode.c    **** 
  33:Src/mode.c    **** 
  34:Src/mode.c    **** /****************************************************************************************
  35:Src/mode.c    ****  * outline  : wright mode 
  36:Src/mode.c    ****  * argument : mode nomber
  37:Src/mode.c    ****  * return   : void
  38:Src/mode.c    **** ********************************************************************************************/
  39:Src/mode.c    **** void Mode_mouse(uint8_t mode){
 118              		.loc 1 39 0
 119              		.cfi_startproc
 120              		@ args = 0, pretend = 0, frame = 0
 121              		@ frame_needed = 0, uses_anonymous_args = 0
 122              	.LVL9:
 123 0000 08B5     		push	{r3, lr}
 124              	.LCFI1:
 125              		.cfi_def_cfa_offset 8
 126              		.cfi_offset 3, -8
 127              		.cfi_offset 14, -4
  40:Src/mode.c    ****     switch(mode){
 128              		.loc 1 40 0
 129 0002 0138     		subs	r0, r0, #1
ARM GAS  C:\Users\kotaro\AppData\Local\Temp\ccM9i9Pf.s 			page 4


 130              	.LVL10:
 131 0004 0728     		cmp	r0, #7
 132 0006 15D8     		bhi	.L10
 133 0008 DFE800F0 		tbb	[pc, r0]
 134              	.L13:
 135 000c 04       		.byte	(.L12-.L13)/2
 136 000d 07       		.byte	(.L14-.L13)/2
 137 000e 0A       		.byte	(.L15-.L13)/2
 138 000f 0D       		.byte	(.L16-.L13)/2
 139 0010 10       		.byte	(.L17-.L13)/2
 140 0011 12       		.byte	(.L18-.L13)/2
 141 0012 15       		.byte	(.L19-.L13)/2
 142 0013 18       		.byte	(.L20-.L13)/2
 143              		.p2align 1
 144              	.L12:
 145              	.LBB2:
  41:Src/mode.c    ****         case 1:
  42:Src/mode.c    ****             Show_log();
 146              		.loc 1 42 0
 147 0014 FFF7FEFF 		bl	Show_log
 148              	.LVL11:
  43:Src/mode.c    ****             break;
 149              		.loc 1 43 0
 150 0018 0CE0     		b	.L10
 151              	.L14:
  44:Src/mode.c    ****         case 2:
  45:Src/mode.c    ****             Normal_Straight();
 152              		.loc 1 45 0
 153 001a FFF7FEFF 		bl	Normal_Straight
 154              	.LVL12:
  46:Src/mode.c    ****             break;
 155              		.loc 1 46 0
 156 001e 09E0     		b	.L10
 157              	.L15:
  47:Src/mode.c    ****         case 3:
  48:Src/mode.c    ****             Normal_Turn_Half();
 158              		.loc 1 48 0
 159 0020 FFF7FEFF 		bl	Normal_Turn_Half
 160              	.LVL13:
  49:Src/mode.c    ****             break;
 161              		.loc 1 49 0
 162 0024 06E0     		b	.L10
 163              	.L16:
  50:Src/mode.c    ****         case 4:
  51:Src/mode.c    ****             Normal_Ennkai();
 164              		.loc 1 51 0
 165 0026 FFF7FEFF 		bl	Normal_Ennkai
 166              	.LVL14:
  52:Src/mode.c    ****             break;
 167              		.loc 1 52 0
 168 002a 03E0     		b	.L10
 169              	.L17:
  53:Src/mode.c    ****         case 5:
  54:Src/mode.c    ****             Straight();
 170              		.loc 1 54 0
 171 002c FFF7FEFF 		bl	Straight
 172              	.LVL15:
ARM GAS  C:\Users\kotaro\AppData\Local\Temp\ccM9i9Pf.s 			page 5


 173              	.L18:
  55:Src/mode.c    ****         case 6:
  56:Src/mode.c    ****             Turn_Half();
 174              		.loc 1 56 0
 175 0030 FFF7FEFF 		bl	Turn_Half
 176              	.LVL16:
 177              	.L10:
 178              	.LBE2:
  57:Src/mode.c    ****             break;
  58:Src/mode.c    ****         case 7:
  59:Src/mode.c    ****             Ennkai();
  60:Src/mode.c    ****             break;
  61:Src/mode.c    ****         case 8:
  62:Src/mode.c    ****             Sensor_Mode();
  63:Src/mode.c    ****             break;
  64:Src/mode.c    ****         default:
  65:Src/mode.c    ****             break;
  66:Src/mode.c    ****     }
  67:Src/mode.c    **** }
 179              		.loc 1 67 0
 180 0034 08BD     		pop	{r3, pc}
 181              	.L19:
 182              	.LBB3:
  59:Src/mode.c    ****             break;
 183              		.loc 1 59 0
 184 0036 FFF7FEFF 		bl	Ennkai
 185              	.LVL17:
  60:Src/mode.c    ****         case 8:
 186              		.loc 1 60 0
 187 003a FBE7     		b	.L10
 188              	.L20:
  62:Src/mode.c    ****             break;
 189              		.loc 1 62 0
 190 003c FFF7FEFF 		bl	Sensor_Mode
 191              	.LVL18:
 192              	.LBE3:
 193              		.loc 1 67 0
 194 0040 F8E7     		b	.L10
 195              		.cfi_endproc
 196              	.LFE127:
 198              		.section	.text.LeftHand,"ax",%progbits
 199              		.align	1
 200              		.global	LeftHand
 201              		.syntax unified
 202              		.thumb
 203              		.thumb_func
 204              		.fpu fpv4-sp-d16
 206              	LeftHand:
 207              	.LFB128:
  68:Src/mode.c    **** 
  69:Src/mode.c    **** 
  70:Src/mode.c    **** void LeftHand(void){
 208              		.loc 1 70 0
 209              		.cfi_startproc
 210              		@ args = 0, pretend = 0, frame = 0
 211              		@ frame_needed = 0, uses_anonymous_args = 0
 212              		@ link register save eliminated.
ARM GAS  C:\Users\kotaro\AppData\Local\Temp\ccM9i9Pf.s 			page 6


 213              	.LVL19:
 214              	.L25:
  71:Src/mode.c    ****     short flag_goal = false;
  72:Src/mode.c    ****     while(flag_goal==false){
  73:Src/mode.c    ****         if(sensor.wall[2] == false){
 215              		.loc 1 73 0
 216 0000 014B     		ldr	r3, .L28
 217 0002 9B7E     		ldrb	r3, [r3, #26]	@ zero_extendqisi2
 218 0004 FCE7     		b	.L25
 219              	.L29:
 220 0006 00BF     		.align	2
 221              	.L28:
 222 0008 00000000 		.word	sensor
 223              		.cfi_endproc
 224              	.LFE128:
 226              		.section	.text.Control_Motion,"ax",%progbits
 227              		.align	1
 228              		.global	Control_Motion
 229              		.syntax unified
 230              		.thumb
 231              		.thumb_func
 232              		.fpu fpv4-sp-d16
 234              	Control_Motion:
 235              	.LFB129:
  74:Src/mode.c    **** 
  75:Src/mode.c    ****         }else if(sensor.wall[0]==true && sensor.wall[3]==true){
  76:Src/mode.c    **** 
  77:Src/mode.c    ****         }else if(sensor.wall[1]==true){
  78:Src/mode.c    **** 
  79:Src/mode.c    ****         }else{
  80:Src/mode.c    **** 
  81:Src/mode.c    ****         }
  82:Src/mode.c    **** 
  83:Src/mode.c    ****     }
  84:Src/mode.c    **** }
  85:Src/mode.c    **** 
  86:Src/mode.c    **** void Control_Motion(short dir){
 236              		.loc 1 86 0
 237              		.cfi_startproc
 238              		@ args = 0, pretend = 0, frame = 0
 239              		@ frame_needed = 0, uses_anonymous_args = 0
 240              		@ link register save eliminated.
 241              	.LVL20:
  87:Src/mode.c    **** 
  88:Src/mode.c    **** }
 242              		.loc 1 88 0
 243 0000 7047     		bx	lr
 244              		.cfi_endproc
 245              	.LFE129:
 247              		.comm	maze,128,4
 248              		.comm	yawrate_pid,2,2
 249              		.comm	straight_pid_r,2,2
 250              		.comm	straight_pid_l,2,2
 251              		.comm	y_sum,4,4
 252              		.comm	s_sum_r,4,4
 253              		.comm	s_sum_l,4,4
 254              		.section	.rodata.Mode_select.str1.4,"aMS",%progbits,1
ARM GAS  C:\Users\kotaro\AppData\Local\Temp\ccM9i9Pf.s 			page 7


 255              		.align	2
 256              	.LC0:
 257 0000 25640D00 		.ascii	"%d\015\000"
 258              		.text
 259              	.Letext0:
 260              		.file 2 "c:\\program files (x86)\\gnu tools arm embedded\\7 2017-q4-major\\arm-none-eabi\\include\
 261              		.file 3 "c:\\program files (x86)\\gnu tools arm embedded\\7 2017-q4-major\\arm-none-eabi\\include\
 262              		.file 4 "Inc/mode.h"
 263              		.file 5 "c:\\program files (x86)\\gnu tools arm embedded\\7 2017-q4-major\\arm-none-eabi\\include\
 264              		.file 6 "c:\\program files (x86)\\gnu tools arm embedded\\7 2017-q4-major\\arm-none-eabi\\include\
 265              		.file 7 "c:\\program files (x86)\\gnu tools arm embedded\\7 2017-q4-major\\lib\\gcc\\arm-none-eabi
 266              		.file 8 "c:\\program files (x86)\\gnu tools arm embedded\\7 2017-q4-major\\arm-none-eabi\\include\
 267              		.file 9 "Inc/global.h"
 268              		.file 10 "Drivers/CMSIS/Include/core_cm4.h"
 269              		.file 11 "Drivers/CMSIS/Device/ST/STM32F4xx/Include/system_stm32f4xx.h"
 270              		.file 12 "Drivers/CMSIS/Device/ST/STM32F4xx/Include/stm32f405xx.h"
 271              		.file 13 "Drivers/STM32F4xx_HAL_Driver/Inc/stm32f4xx_hal_def.h"
 272              		.file 14 "Drivers/STM32F4xx_HAL_Driver/Inc/stm32f4xx_hal_dma.h"
 273              		.file 15 "Drivers/STM32F4xx_HAL_Driver/Inc/stm32f4xx_hal_tim.h"
 274              		.file 16 "Inc/tim.h"
 275              		.file 17 "Inc/control.h"
 276              		.file 18 "Inc/motion.h"
 277              		.file 19 "Inc/gpio.h"
 278              		.file 20 "c:\\program files (x86)\\gnu tools arm embedded\\7 2017-q4-major\\arm-none-eabi\\include
ARM GAS  C:\Users\kotaro\AppData\Local\Temp\ccM9i9Pf.s 			page 8


DEFINED SYMBOLS
                            *ABS*:00000000 mode.c
C:\Users\kotaro\AppData\Local\Temp\ccM9i9Pf.s:18     .text.Mode_select:00000000 $t
C:\Users\kotaro\AppData\Local\Temp\ccM9i9Pf.s:25     .text.Mode_select:00000000 Mode_select
C:\Users\kotaro\AppData\Local\Temp\ccM9i9Pf.s:101    .text.Mode_select:0000006c $d
C:\Users\kotaro\AppData\Local\Temp\ccM9i9Pf.s:109    .text.Mode_mouse:00000000 $t
C:\Users\kotaro\AppData\Local\Temp\ccM9i9Pf.s:116    .text.Mode_mouse:00000000 Mode_mouse
C:\Users\kotaro\AppData\Local\Temp\ccM9i9Pf.s:135    .text.Mode_mouse:0000000c $d
C:\Users\kotaro\AppData\Local\Temp\ccM9i9Pf.s:143    .text.Mode_mouse:00000014 $t
C:\Users\kotaro\AppData\Local\Temp\ccM9i9Pf.s:199    .text.LeftHand:00000000 $t
C:\Users\kotaro\AppData\Local\Temp\ccM9i9Pf.s:206    .text.LeftHand:00000000 LeftHand
C:\Users\kotaro\AppData\Local\Temp\ccM9i9Pf.s:222    .text.LeftHand:00000008 $d
C:\Users\kotaro\AppData\Local\Temp\ccM9i9Pf.s:227    .text.Control_Motion:00000000 $t
C:\Users\kotaro\AppData\Local\Temp\ccM9i9Pf.s:234    .text.Control_Motion:00000000 Control_Motion
                            *COM*:00000080 maze
                            *COM*:00000002 yawrate_pid
                            *COM*:00000002 straight_pid_r
                            *COM*:00000002 straight_pid_l
                            *COM*:00000004 y_sum
                            *COM*:00000004 s_sum_r
                            *COM*:00000004 s_sum_l
C:\Users\kotaro\AppData\Local\Temp\ccM9i9Pf.s:255    .rodata.Mode_select.str1.4:00000000 $d

UNDEFINED SYMBOLS
Push
printf
Output_Buzzer
flag
enc
Show_log
Normal_Straight
Normal_Turn_Half
Normal_Ennkai
Straight
Turn_Half
Ennkai
Sensor_Mode
sensor
