ARM GAS  C:\Users\kotaro\AppData\Local\Temp\ccSbM8LY.s 			page 1


   1              		.cpu cortex-m4
   2              		.eabi_attribute 27, 1
   3              		.eabi_attribute 28, 1
   4              		.eabi_attribute 20, 1
   5              		.eabi_attribute 21, 1
   6              		.eabi_attribute 23, 3
   7              		.eabi_attribute 24, 1
   8              		.eabi_attribute 25, 1
   9              		.eabi_attribute 26, 1
  10              		.eabi_attribute 30, 1
  11              		.eabi_attribute 34, 1
  12              		.eabi_attribute 18, 4
  13              		.file	"mode.c"
  14              		.text
  15              	.Ltext0:
  16              		.cfi_sections	.debug_frame
  17              		.section	.text.Mode_select,"ax",%progbits
  18              		.align	1
  19              		.global	Mode_select
  20              		.syntax unified
  21              		.thumb
  22              		.thumb_func
  23              		.fpu fpv4-sp-d16
  25              	Mode_select:
  26              	.LFB126:
  27              		.file 1 "Src/mode.c"
   1:Src/mode.c    **** #include "mode.h"
   2:Src/mode.c    **** #include "global.h"
   3:Src/mode.c    **** #include "gpio.h"
   4:Src/mode.c    **** #include "tim.h"
   5:Src/mode.c    **** #include "control.h"
   6:Src/mode.c    **** #include "spi.h"
   7:Src/mode.c    **** 
   8:Src/mode.c    **** 
   9:Src/mode.c    **** /****************************************************************************************
  10:Src/mode.c    ****  * outline  : return mode nomber
  11:Src/mode.c    ****  * argument : void
  12:Src/mode.c    ****  * return   : mode nomber 
  13:Src/mode.c    **** ********************************************************************************************/
  14:Src/mode.c    **** uint8_t Mode_select(void){
  28              		.loc 1 14 0
  29              		.cfi_startproc
  30              		@ args = 0, pretend = 0, frame = 0
  31              		@ frame_needed = 0, uses_anonymous_args = 0
  32 0000 10B5     		push	{r4, lr}
  33              	.LCFI0:
  34              		.cfi_def_cfa_offset 8
  35              		.cfi_offset 4, -8
  36              		.cfi_offset 14, -4
  37              	.LVL0:
  15:Src/mode.c    ****     uint8_t mode=0;
  38              		.loc 1 15 0
  39 0002 0024     		movs	r4, #0
  40 0004 07E0     		b	.L4
  41              	.LVL1:
  42              	.L2:
  16:Src/mode.c    ****     while(1){
ARM GAS  C:\Users\kotaro\AppData\Local\Temp\ccSbM8LY.s 			page 2


  17:Src/mode.c    ****         if((int16_t)enc.distance_l % 30 == 29){
  18:Src/mode.c    ****             mode ++;
  19:Src/mode.c    ****             Output_Buzzer(160-10*mode);
  20:Src/mode.c    ****         }
  21:Src/mode.c    ****         if(Push()==ON){
  43              		.loc 1 21 0
  44 0006 FFF7FEFF 		bl	Push
  45              	.LVL2:
  46 000a 0128     		cmp	r0, #1
  47 000c 26D0     		beq	.L6
  22:Src/mode.c    ****             Output_Buzzer(HZ_C_H);
  23:Src/mode.c    ****             break;
  24:Src/mode.c    ****         }
  25:Src/mode.c    ****         printf("%d\r",mode);
  48              		.loc 1 25 0
  49 000e 2146     		mov	r1, r4
  50 0010 1548     		ldr	r0, .L8
  51 0012 FFF7FEFF 		bl	printf
  52              	.LVL3:
  53              	.L4:
  17:Src/mode.c    ****             mode ++;
  54              		.loc 1 17 0
  55 0016 154B     		ldr	r3, .L8+4
  56 0018 D3ED067A 		vldr.32	s15, [r3, #24]
  57 001c FDEEE77A 		vcvt.s32.f32	s15, s15
  58 0020 17EE903A 		vmov	r3, s15	@ int
  59 0024 1BB2     		sxth	r3, r3
  60 0026 124A     		ldr	r2, .L8+8
  61 0028 82FB0312 		smull	r1, r2, r2, r3
  62 002c D118     		adds	r1, r2, r3
  63 002e DA17     		asrs	r2, r3, #31
  64 0030 C2EB2112 		rsb	r2, r2, r1, asr #4
  65 0034 C2EB0212 		rsb	r2, r2, r2, lsl #4
  66 0038 5100     		lsls	r1, r2, #1
  67 003a 5B1A     		subs	r3, r3, r1
  68 003c 1BB2     		sxth	r3, r3
  69 003e 1D2B     		cmp	r3, #29
  70 0040 E1D1     		bne	.L2
  18:Src/mode.c    ****             Output_Buzzer(160-10*mode);
  71              		.loc 1 18 0
  72 0042 0134     		adds	r4, r4, #1
  73              	.LVL4:
  74 0044 E4B2     		uxtb	r4, r4
  75              	.LVL5:
  19:Src/mode.c    ****         }
  76              		.loc 1 19 0
  77 0046 C4EB4413 		rsb	r3, r4, r4, lsl #5
  78 004a C4EB8303 		rsb	r3, r4, r3, lsl #2
  79 004e 5800     		lsls	r0, r3, #1
  80 0050 6038     		subs	r0, r0, #96
  81 0052 00F0FE00 		and	r0, r0, #254
  82 0056 FFF7FEFF 		bl	Output_Buzzer
  83              	.LVL6:
  84 005a D4E7     		b	.L2
  85              	.L6:
  22:Src/mode.c    ****             break;
  86              		.loc 1 22 0
ARM GAS  C:\Users\kotaro\AppData\Local\Temp\ccSbM8LY.s 			page 3


  87 005c 4C20     		movs	r0, #76
  88 005e FFF7FEFF 		bl	Output_Buzzer
  89              	.LVL7:
  26:Src/mode.c    ****     }
  27:Src/mode.c    ****     return mode;
  28:Src/mode.c    **** }
  90              		.loc 1 28 0
  91 0062 2046     		mov	r0, r4
  92 0064 10BD     		pop	{r4, pc}
  93              	.LVL8:
  94              	.L9:
  95 0066 00BF     		.align	2
  96              	.L8:
  97 0068 00000000 		.word	.LC0
  98 006c 00000000 		.word	enc
  99 0070 89888888 		.word	-2004318071
 100              		.cfi_endproc
 101              	.LFE126:
 103              		.section	.text.L_chica,"ax",%progbits
 104              		.align	1
 105              		.global	L_chica
 106              		.syntax unified
 107              		.thumb
 108              		.thumb_func
 109              		.fpu fpv4-sp-d16
 111              	L_chica:
 112              	.LFB128:
  29:Src/mode.c    **** 
  30:Src/mode.c    **** 
  31:Src/mode.c    **** /****************************************************************************************
  32:Src/mode.c    ****  * outline  : wright mode 
  33:Src/mode.c    ****  * argument : mode nomber
  34:Src/mode.c    ****  * return   : void
  35:Src/mode.c    **** ********************************************************************************************/
  36:Src/mode.c    **** void Mode_mouse(uint8_t mode){
  37:Src/mode.c    ****     switch(mode){
  38:Src/mode.c    ****         case 1:
  39:Src/mode.c    ****             Normal_Straight();
  40:Src/mode.c    ****             break;
  41:Src/mode.c    ****         case 2:
  42:Src/mode.c    ****             Turn_Half();
  43:Src/mode.c    ****             break;
  44:Src/mode.c    ****         case 3:
  45:Src/mode.c    ****             Show_log();
  46:Src/mode.c    ****             break;
  47:Src/mode.c    ****         case 4:
  48:Src/mode.c    ****     
  49:Src/mode.c    ****             break;
  50:Src/mode.c    ****         default:
  51:Src/mode.c    ****             break;
  52:Src/mode.c    ****     }
  53:Src/mode.c    **** }
  54:Src/mode.c    **** 
  55:Src/mode.c    **** 
  56:Src/mode.c    **** /****************************************************************************************
  57:Src/mode.c    ****  * outline  : turn on off LED 
  58:Src/mode.c    ****  * argument : void
ARM GAS  C:\Users\kotaro\AppData\Local\Temp\ccSbM8LY.s 			page 4


  59:Src/mode.c    ****  * return   : void
  60:Src/mode.c    **** ********************************************************************************************/
  61:Src/mode.c    **** void L_chica(void){
 113              		.loc 1 61 0
 114              		.cfi_startproc
 115              		@ args = 0, pretend = 0, frame = 0
 116              		@ frame_needed = 0, uses_anonymous_args = 0
 117 0000 08B5     		push	{r3, lr}
 118              	.LCFI1:
 119              		.cfi_def_cfa_offset 8
 120              		.cfi_offset 3, -8
 121              		.cfi_offset 14, -4
  62:Src/mode.c    ****     Output_Buzzer(HZ_C_H);
 122              		.loc 1 62 0
 123 0002 4C20     		movs	r0, #76
 124 0004 FFF7FEFF 		bl	Output_Buzzer
 125              	.LVL9:
 126              	.L11:
  63:Src/mode.c    ****     while(1){
  64:Src/mode.c    ****         All_LED_ON();
 127              		.loc 1 64 0
 128 0008 FFF7FEFF 		bl	All_LED_ON
 129              	.LVL10:
  65:Src/mode.c    ****         HAL_Delay(1000);
 130              		.loc 1 65 0
 131 000c 4FF47A70 		mov	r0, #1000
 132 0010 FFF7FEFF 		bl	HAL_Delay
 133              	.LVL11:
  66:Src/mode.c    ****         All_LED_OFF();
 134              		.loc 1 66 0
 135 0014 FFF7FEFF 		bl	All_LED_OFF
 136              	.LVL12:
  67:Src/mode.c    ****         HAL_Delay(1000);
 137              		.loc 1 67 0
 138 0018 4FF47A70 		mov	r0, #1000
 139 001c FFF7FEFF 		bl	HAL_Delay
 140              	.LVL13:
  68:Src/mode.c    ****         if(Push()==ON){
 141              		.loc 1 68 0
 142 0020 FFF7FEFF 		bl	Push
 143              	.LVL14:
 144 0024 0128     		cmp	r0, #1
 145 0026 EFD1     		bne	.L11
  69:Src/mode.c    ****             Output_Buzzer(HZ_A);
 146              		.loc 1 69 0
 147 0028 5B20     		movs	r0, #91
 148 002a FFF7FEFF 		bl	Output_Buzzer
 149              	.LVL15:
  70:Src/mode.c    ****             break;
  71:Src/mode.c    ****         }
  72:Src/mode.c    ****     }
  73:Src/mode.c    **** }
 150              		.loc 1 73 0
 151 002e 08BD     		pop	{r3, pc}
 152              		.cfi_endproc
 153              	.LFE128:
 155              		.section	.text.Turn_Half,"ax",%progbits
ARM GAS  C:\Users\kotaro\AppData\Local\Temp\ccSbM8LY.s 			page 5


 156              		.align	1
 157              		.global	Turn_Half
 158              		.syntax unified
 159              		.thumb
 160              		.thumb_func
 161              		.fpu fpv4-sp-d16
 163              	Turn_Half:
 164              	.LFB129:
  74:Src/mode.c    **** 
  75:Src/mode.c    **** void Turn_Half(void){
 165              		.loc 1 75 0
 166              		.cfi_startproc
 167              		@ args = 0, pretend = 0, frame = 0
 168              		@ frame_needed = 0, uses_anonymous_args = 0
 169 0000 08B5     		push	{r3, lr}
 170              	.LCFI2:
 171              		.cfi_def_cfa_offset 8
 172              		.cfi_offset 3, -8
 173              		.cfi_offset 14, -4
  76:Src/mode.c    ****     HAL_Delay(500);
 174              		.loc 1 76 0
 175 0002 4FF4FA70 		mov	r0, #500
 176 0006 FFF7FEFF 		bl	HAL_Delay
 177              	.LVL16:
  77:Src/mode.c    ****     gyro_offset_calc_reset();
 178              		.loc 1 77 0
 179 000a FFF7FEFF 		bl	gyro_offset_calc_reset
 180              	.LVL17:
  78:Src/mode.c    ****     Yawrate_Calc_fb(180,0,0);
 181              		.loc 1 78 0
 182 000e 0022     		movs	r2, #0
 183 0010 1146     		mov	r1, r2
 184 0012 B420     		movs	r0, #180
 185 0014 FFF7FEFF 		bl	Yawrate_Calc_fb
 186              	.LVL18:
  79:Src/mode.c    ****     HAL_Delay(1000);
 187              		.loc 1 79 0
 188 0018 4FF47A70 		mov	r0, #1000
 189 001c FFF7FEFF 		bl	HAL_Delay
 190              	.LVL19:
  80:Src/mode.c    ****     Output_Buzzer(HZ_C_H);
 191              		.loc 1 80 0
 192 0020 4C20     		movs	r0, #76
 193 0022 FFF7FEFF 		bl	Output_Buzzer
 194              	.LVL20:
  81:Src/mode.c    ****     flag.yawrate = ON;
 195              		.loc 1 81 0
 196 0026 054B     		ldr	r3, .L16
 197 0028 0122     		movs	r2, #1
 198 002a 9A80     		strh	r2, [r3, #4]	@ movhi
 199              	.L14:
  82:Src/mode.c    ****     while(1){
  83:Src/mode.c    ****         if(Push()==ON){
 200              		.loc 1 83 0
 201 002c FFF7FEFF 		bl	Push
 202              	.LVL21:
 203 0030 0128     		cmp	r0, #1
ARM GAS  C:\Users\kotaro\AppData\Local\Temp\ccSbM8LY.s 			page 6


 204 0032 FBD1     		bne	.L14
  84:Src/mode.c    ****             Output_Buzzer(HZ_A);
 205              		.loc 1 84 0
 206 0034 5B20     		movs	r0, #91
 207 0036 FFF7FEFF 		bl	Output_Buzzer
 208              	.LVL22:
  85:Src/mode.c    ****             break;
  86:Src/mode.c    ****         }
  87:Src/mode.c    ****     }
  88:Src/mode.c    **** }
 209              		.loc 1 88 0
 210 003a 08BD     		pop	{r3, pc}
 211              	.L17:
 212              		.align	2
 213              	.L16:
 214 003c 00000000 		.word	flag
 215              		.cfi_endproc
 216              	.LFE129:
 218              		.section	.text.Ennkai,"ax",%progbits
 219              		.align	1
 220              		.global	Ennkai
 221              		.syntax unified
 222              		.thumb
 223              		.thumb_func
 224              		.fpu fpv4-sp-d16
 226              	Ennkai:
 227              	.LFB130:
  89:Src/mode.c    **** 
  90:Src/mode.c    **** 
  91:Src/mode.c    **** /****************************************************************************************
  92:Src/mode.c    ****  * outline  : "ennkaigei"
  93:Src/mode.c    ****  * argument : void
  94:Src/mode.c    ****  * return   : void
  95:Src/mode.c    **** ********************************************************************************************/
  96:Src/mode.c    **** void Ennkai(void){
 228              		.loc 1 96 0
 229              		.cfi_startproc
 230              		@ args = 0, pretend = 0, frame = 0
 231              		@ frame_needed = 0, uses_anonymous_args = 0
 232 0000 08B5     		push	{r3, lr}
 233              	.LCFI3:
 234              		.cfi_def_cfa_offset 8
 235              		.cfi_offset 3, -8
 236              		.cfi_offset 14, -4
  97:Src/mode.c    ****     HAL_Delay(500);
 237              		.loc 1 97 0
 238 0002 4FF4FA70 		mov	r0, #500
 239 0006 FFF7FEFF 		bl	HAL_Delay
 240              	.LVL23:
  98:Src/mode.c    ****     gyro_offset_calc_reset();
 241              		.loc 1 98 0
 242 000a FFF7FEFF 		bl	gyro_offset_calc_reset
 243              	.LVL24:
  99:Src/mode.c    ****     Yawrate_Calc_fb(0,0,0);
 244              		.loc 1 99 0
 245 000e 0022     		movs	r2, #0
 246 0010 1146     		mov	r1, r2
ARM GAS  C:\Users\kotaro\AppData\Local\Temp\ccSbM8LY.s 			page 7


 247 0012 1046     		mov	r0, r2
 248 0014 FFF7FEFF 		bl	Yawrate_Calc_fb
 249              	.LVL25:
 100:Src/mode.c    ****     HAL_Delay(1000);
 250              		.loc 1 100 0
 251 0018 4FF47A70 		mov	r0, #1000
 252 001c FFF7FEFF 		bl	HAL_Delay
 253              	.LVL26:
 101:Src/mode.c    ****     Output_Buzzer(HZ_C_H);
 254              		.loc 1 101 0
 255 0020 4C20     		movs	r0, #76
 256 0022 FFF7FEFF 		bl	Output_Buzzer
 257              	.LVL27:
 102:Src/mode.c    ****     flag.yawrate = ON;
 258              		.loc 1 102 0
 259 0026 074B     		ldr	r3, .L21
 260 0028 0122     		movs	r2, #1
 261 002a 9A80     		strh	r2, [r3, #4]	@ movhi
 262              	.L19:
 103:Src/mode.c    ****     while(1){
 104:Src/mode.c    ****         if(Push()==ON){
 263              		.loc 1 104 0
 264 002c FFF7FEFF 		bl	Push
 265              	.LVL28:
 266 0030 0128     		cmp	r0, #1
 267 0032 FBD1     		bne	.L19
 105:Src/mode.c    ****             flag.yawrate = OFF;
 268              		.loc 1 105 0
 269 0034 034B     		ldr	r3, .L21
 270 0036 0022     		movs	r2, #0
 271 0038 9A80     		strh	r2, [r3, #4]	@ movhi
 106:Src/mode.c    ****             Output_Buzzer(HZ_A);
 272              		.loc 1 106 0
 273 003a 5B20     		movs	r0, #91
 274 003c FFF7FEFF 		bl	Output_Buzzer
 275              	.LVL29:
 107:Src/mode.c    ****             break;
 108:Src/mode.c    ****         }
 109:Src/mode.c    ****     }
 110:Src/mode.c    **** }
 276              		.loc 1 110 0
 277 0040 08BD     		pop	{r3, pc}
 278              	.L22:
 279 0042 00BF     		.align	2
 280              	.L21:
 281 0044 00000000 		.word	flag
 282              		.cfi_endproc
 283              	.LFE130:
 285              		.section	.text.Normal_Straight,"ax",%progbits
 286              		.align	1
 287              		.global	Normal_Straight
 288              		.syntax unified
 289              		.thumb
 290              		.thumb_func
 291              		.fpu fpv4-sp-d16
 293              	Normal_Straight:
 294              	.LFB131:
ARM GAS  C:\Users\kotaro\AppData\Local\Temp\ccSbM8LY.s 			page 8


 111:Src/mode.c    **** 
 112:Src/mode.c    **** 
 113:Src/mode.c    **** /****************************************************************************************
 114:Src/mode.c    ****  * outline  : straight run one block by feadbuck control
 115:Src/mode.c    ****  * argument : void
 116:Src/mode.c    ****  * return   : void
 117:Src/mode.c    **** ********************************************************************************************/
 118:Src/mode.c    **** void Normal_Straight(void){
 295              		.loc 1 118 0
 296              		.cfi_startproc
 297              		@ args = 0, pretend = 0, frame = 0
 298              		@ frame_needed = 0, uses_anonymous_args = 0
 299 0000 08B5     		push	{r3, lr}
 300              	.LCFI4:
 301              		.cfi_def_cfa_offset 8
 302              		.cfi_offset 3, -8
 303              		.cfi_offset 14, -4
 119:Src/mode.c    ****     HAL_Delay(500);
 304              		.loc 1 119 0
 305 0002 4FF4FA70 		mov	r0, #500
 306 0006 FFF7FEFF 		bl	HAL_Delay
 307              	.LVL30:
 120:Src/mode.c    ****     Straight_Calc_fb(180,0,0);
 308              		.loc 1 120 0
 309 000a 0022     		movs	r2, #0
 310 000c 1146     		mov	r1, r2
 311 000e B420     		movs	r0, #180
 312 0010 FFF7FEFF 		bl	Straight_Calc_fb
 313              	.LVL31:
 121:Src/mode.c    ****     HAL_Delay(1000);
 314              		.loc 1 121 0
 315 0014 4FF47A70 		mov	r0, #1000
 316 0018 FFF7FEFF 		bl	HAL_Delay
 317              	.LVL32:
 122:Src/mode.c    ****     Output_Buzzer(HZ_C_H);
 318              		.loc 1 122 0
 319 001c 4C20     		movs	r0, #76
 320 001e FFF7FEFF 		bl	Output_Buzzer
 321              	.LVL33:
 123:Src/mode.c    ****     flag.straight = ON;
 322              		.loc 1 123 0
 323 0022 054B     		ldr	r3, .L26
 324 0024 0122     		movs	r2, #1
 325 0026 5A80     		strh	r2, [r3, #2]	@ movhi
 326              	.L24:
 124:Src/mode.c    ****     while(1){
 125:Src/mode.c    ****         if(Push()==ON){
 327              		.loc 1 125 0
 328 0028 FFF7FEFF 		bl	Push
 329              	.LVL34:
 330 002c 0128     		cmp	r0, #1
 331 002e FBD1     		bne	.L24
 126:Src/mode.c    ****             Output_Buzzer(HZ_A);
 332              		.loc 1 126 0
 333 0030 5B20     		movs	r0, #91
 334 0032 FFF7FEFF 		bl	Output_Buzzer
 335              	.LVL35:
ARM GAS  C:\Users\kotaro\AppData\Local\Temp\ccSbM8LY.s 			page 9


 127:Src/mode.c    ****             break;
 128:Src/mode.c    ****         }
 129:Src/mode.c    ****     }
 130:Src/mode.c    **** }
 336              		.loc 1 130 0
 337 0036 08BD     		pop	{r3, pc}
 338              	.L27:
 339              		.align	2
 340              	.L26:
 341 0038 00000000 		.word	flag
 342              		.cfi_endproc
 343              	.LFE131:
 345              		.section	.text.Straight_one_fb,"ax",%progbits
 346              		.align	1
 347              		.global	Straight_one_fb
 348              		.syntax unified
 349              		.thumb
 350              		.thumb_func
 351              		.fpu fpv4-sp-d16
 353              	Straight_one_fb:
 354              	.LFB132:
 131:Src/mode.c    **** 
 132:Src/mode.c    **** 
 133:Src/mode.c    **** /****************************************************************************************
 134:Src/mode.c    ****  * outline  : straight one block by encoder and gyro
 135:Src/mode.c    ****  * argument : void
 136:Src/mode.c    ****  * return   : void
 137:Src/mode.c    **** ********************************************************************************************/
 138:Src/mode.c    **** void Straight_one_fb(void){
 355              		.loc 1 138 0
 356              		.cfi_startproc
 357              		@ args = 0, pretend = 0, frame = 0
 358              		@ frame_needed = 0, uses_anonymous_args = 0
 359 0000 08B5     		push	{r3, lr}
 360              	.LCFI5:
 361              		.cfi_def_cfa_offset 8
 362              		.cfi_offset 3, -8
 363              		.cfi_offset 14, -4
 139:Src/mode.c    ****     HAL_Delay(500);
 364              		.loc 1 139 0
 365 0002 4FF4FA70 		mov	r0, #500
 366 0006 FFF7FEFF 		bl	HAL_Delay
 367              	.LVL36:
 140:Src/mode.c    ****     Straight_Calc_fb(180.0f,0.0f,0.0f);
 368              		.loc 1 140 0
 369 000a 0022     		movs	r2, #0
 370 000c 1146     		mov	r1, r2
 371 000e B420     		movs	r0, #180
 372 0010 FFF7FEFF 		bl	Straight_Calc_fb
 373              	.LVL37:
 141:Src/mode.c    ****     Yawrate_Calc_fb(0,0,0);
 374              		.loc 1 141 0
 375 0014 0022     		movs	r2, #0
 376 0016 1146     		mov	r1, r2
 377 0018 1046     		mov	r0, r2
 378 001a FFF7FEFF 		bl	Yawrate_Calc_fb
 379              	.LVL38:
ARM GAS  C:\Users\kotaro\AppData\Local\Temp\ccSbM8LY.s 			page 10


 142:Src/mode.c    ****     HAL_Delay(1000);
 380              		.loc 1 142 0
 381 001e 4FF47A70 		mov	r0, #1000
 382 0022 FFF7FEFF 		bl	HAL_Delay
 383              	.LVL39:
 143:Src/mode.c    ****     Output_Buzzer(HZ_C_H);
 384              		.loc 1 143 0
 385 0026 4C20     		movs	r0, #76
 386 0028 FFF7FEFF 		bl	Output_Buzzer
 387              	.LVL40:
 144:Src/mode.c    ****     flag.straight = ON;
 388              		.loc 1 144 0
 389 002c 054B     		ldr	r3, .L31
 390 002e 0122     		movs	r2, #1
 391 0030 5A80     		strh	r2, [r3, #2]	@ movhi
 145:Src/mode.c    ****     flag.yawrate = ON;
 392              		.loc 1 145 0
 393 0032 9A80     		strh	r2, [r3, #4]	@ movhi
 394              	.L29:
 146:Src/mode.c    ****     while(1){
 147:Src/mode.c    ****         if(Push()==ON){
 395              		.loc 1 147 0
 396 0034 FFF7FEFF 		bl	Push
 397              	.LVL41:
 398 0038 0128     		cmp	r0, #1
 399 003a FBD1     		bne	.L29
 148:Src/mode.c    ****             Output_Buzzer(HZ_A);
 400              		.loc 1 148 0
 401 003c 5B20     		movs	r0, #91
 402 003e FFF7FEFF 		bl	Output_Buzzer
 403              	.LVL42:
 149:Src/mode.c    ****             break;
 150:Src/mode.c    ****         }
 151:Src/mode.c    ****     }
 152:Src/mode.c    **** }
 404              		.loc 1 152 0
 405 0042 08BD     		pop	{r3, pc}
 406              	.L32:
 407              		.align	2
 408              	.L31:
 409 0044 00000000 		.word	flag
 410              		.cfi_endproc
 411              	.LFE132:
 413              		.global	__aeabi_f2d
 414              		.section	.text.Show_log,"ax",%progbits
 415              		.align	1
 416              		.global	Show_log
 417              		.syntax unified
 418              		.thumb
 419              		.thumb_func
 420              		.fpu fpv4-sp-d16
 422              	Show_log:
 423              	.LFB133:
 153:Src/mode.c    **** 
 154:Src/mode.c    **** 
 155:Src/mode.c    **** /****************************************************************************************
 156:Src/mode.c    ****  * outline  : show log
ARM GAS  C:\Users\kotaro\AppData\Local\Temp\ccSbM8LY.s 			page 11


 157:Src/mode.c    ****  * argument : void
 158:Src/mode.c    ****  * return   : void
 159:Src/mode.c    **** ********************************************************************************************/
 160:Src/mode.c    **** void Show_log(void){
 424              		.loc 1 160 0
 425              		.cfi_startproc
 426              		@ args = 0, pretend = 0, frame = 0
 427              		@ frame_needed = 0, uses_anonymous_args = 0
 428 0000 2DE9F041 		push	{r4, r5, r6, r7, r8, lr}
 429              	.LCFI6:
 430              		.cfi_def_cfa_offset 24
 431              		.cfi_offset 4, -24
 432              		.cfi_offset 5, -20
 433              		.cfi_offset 6, -16
 434              		.cfi_offset 7, -12
 435              		.cfi_offset 8, -8
 436              		.cfi_offset 14, -4
 437 0004 84B0     		sub	sp, sp, #16
 438              	.LCFI7:
 439              		.cfi_def_cfa_offset 40
 161:Src/mode.c    ****     printf("\na:%d,c:%d,d:%d\r\n",accel_T,constant_T,decrease_T);
 440              		.loc 1 161 0
 441 0006 1D4B     		ldr	r3, .L40
 442 0008 1B88     		ldrh	r3, [r3]
 443 000a 1D4A     		ldr	r2, .L40+4
 444 000c 1288     		ldrh	r2, [r2]
 445 000e 1D49     		ldr	r1, .L40+8
 446 0010 0988     		ldrh	r1, [r1]
 447 0012 1D48     		ldr	r0, .L40+12
 448 0014 FFF7FEFF 		bl	printf
 449              	.LVL43:
 450              	.LBB2:
 162:Src/mode.c    ****     for(uint16_t i=0;i<3000;i++){
 451              		.loc 1 162 0
 452 0018 0024     		movs	r4, #0
 453              	.LVL44:
 454              	.L34:
 455              		.loc 1 162 0 is_stmt 0 discriminator 1
 456 001a 40F6B733 		movw	r3, #2999
 457 001e 9C42     		cmp	r4, r3
 458 0020 29D8     		bhi	.L33
 163:Src/mode.c    ****         printf("%f\t%f\t%f\r\n",log_calc[i],log_enc[0][i],log_enc[1][i]);
 459              		.loc 1 163 0 is_stmt 1
 460 0022 A200     		lsls	r2, r4, #2
 461 0024 1949     		ldr	r1, .L40+16
 462 0026 1144     		add	r1, r1, r2
 463 0028 194B     		ldr	r3, .L40+20
 464 002a 1A44     		add	r2, r2, r3
 465 002c 1568     		ldr	r5, [r2]	@ float
 466 002e 04F6B832 		addw	r2, r4, #3000
 467 0032 03EB8203 		add	r3, r3, r2, lsl #2
 468 0036 D3F80080 		ldr	r8, [r3]	@ float
 469 003a 0868     		ldr	r0, [r1]	@ float
 470 003c FFF7FEFF 		bl	__aeabi_f2d
 471              	.LVL45:
 472 0040 0646     		mov	r6, r0
 473 0042 0F46     		mov	r7, r1
ARM GAS  C:\Users\kotaro\AppData\Local\Temp\ccSbM8LY.s 			page 12


 474 0044 4046     		mov	r0, r8	@ float
 475 0046 FFF7FEFF 		bl	__aeabi_f2d
 476              	.LVL46:
 477 004a CDE90201 		strd	r0, [sp, #8]
 478 004e 2846     		mov	r0, r5	@ float
 479 0050 FFF7FEFF 		bl	__aeabi_f2d
 480              	.LVL47:
 481 0054 CDE90001 		strd	r0, [sp]
 482 0058 3246     		mov	r2, r6
 483 005a 3B46     		mov	r3, r7
 484 005c 0D48     		ldr	r0, .L40+24
 485 005e FFF7FEFF 		bl	printf
 486              	.LVL48:
 164:Src/mode.c    ****         if(Push()==ON){
 487              		.loc 1 164 0
 488 0062 FFF7FEFF 		bl	Push
 489              	.LVL49:
 490 0066 0128     		cmp	r0, #1
 491 0068 02D0     		beq	.L39
 162:Src/mode.c    ****     for(uint16_t i=0;i<3000;i++){
 492              		.loc 1 162 0 discriminator 2
 493 006a 0134     		adds	r4, r4, #1
 494              	.LVL50:
 495 006c A4B2     		uxth	r4, r4
 496              	.LVL51:
 497 006e D4E7     		b	.L34
 498              	.L39:
 165:Src/mode.c    ****             Output_Buzzer(HZ_A);
 499              		.loc 1 165 0
 500 0070 5B20     		movs	r0, #91
 501 0072 FFF7FEFF 		bl	Output_Buzzer
 502              	.LVL52:
 503              	.L33:
 504              	.LBE2:
 166:Src/mode.c    ****             break;
 167:Src/mode.c    ****         }
 168:Src/mode.c    ****     }
 169:Src/mode.c    **** }...
 505              		.loc 1 169 0
 506 0076 04B0     		add	sp, sp, #16
 507              	.LCFI8:
 508              		.cfi_def_cfa_offset 24
 509              		@ sp needed
 510 0078 BDE8F081 		pop	{r4, r5, r6, r7, r8, pc}
 511              	.LVL53:
 512              	.L41:
 513              		.align	2
 514              	.L40:
 515 007c 00000000 		.word	decrease_T
 516 0080 00000000 		.word	constant_T
 517 0084 00000000 		.word	accel_T
 518 0088 00000000 		.word	.LC1
 519 008c 00000000 		.word	log_calc
 520 0090 00000000 		.word	log_enc
 521 0094 14000000 		.word	.LC2
 522              		.cfi_endproc
 523              	.LFE133:
ARM GAS  C:\Users\kotaro\AppData\Local\Temp\ccSbM8LY.s 			page 13


 525              		.section	.text.Mode_mouse,"ax",%progbits
 526              		.align	1
 527              		.global	Mode_mouse
 528              		.syntax unified
 529              		.thumb
 530              		.thumb_func
 531              		.fpu fpv4-sp-d16
 533              	Mode_mouse:
 534              	.LFB127:
  36:Src/mode.c    **** void Mode_mouse(uint8_t mode){
 535              		.loc 1 36 0
 536              		.cfi_startproc
 537              		@ args = 0, pretend = 0, frame = 0
 538              		@ frame_needed = 0, uses_anonymous_args = 0
 539              	.LVL54:
 540 0000 08B5     		push	{r3, lr}
 541              	.LCFI9:
 542              		.cfi_def_cfa_offset 8
 543              		.cfi_offset 3, -8
 544              		.cfi_offset 14, -4
  37:Src/mode.c    ****     switch(mode){
 545              		.loc 1 37 0
 546 0002 0228     		cmp	r0, #2
 547 0004 07D0     		beq	.L44
 548 0006 0328     		cmp	r0, #3
 549 0008 08D0     		beq	.L45
 550 000a 0128     		cmp	r0, #1
 551 000c 00D0     		beq	.L48
 552              	.LVL55:
 553              	.L42:
  53:Src/mode.c    **** }
 554              		.loc 1 53 0
 555 000e 08BD     		pop	{r3, pc}
 556              	.LVL56:
 557              	.L48:
  39:Src/mode.c    ****             Normal_Straight();
 558              		.loc 1 39 0
 559 0010 FFF7FEFF 		bl	Normal_Straight
 560              	.LVL57:
  40:Src/mode.c    ****             break;
 561              		.loc 1 40 0
 562 0014 FBE7     		b	.L42
 563              	.LVL58:
 564              	.L44:
  42:Src/mode.c    ****             Turn_Half();
 565              		.loc 1 42 0
 566 0016 FFF7FEFF 		bl	Turn_Half
 567              	.LVL59:
  43:Src/mode.c    ****             break;
 568              		.loc 1 43 0
 569 001a F8E7     		b	.L42
 570              	.LVL60:
 571              	.L45:
  45:Src/mode.c    ****             Show_log();
 572              		.loc 1 45 0
 573 001c FFF7FEFF 		bl	Show_log
 574              	.LVL61:
ARM GAS  C:\Users\kotaro\AppData\Local\Temp\ccSbM8LY.s 			page 14


  53:Src/mode.c    **** }
 575              		.loc 1 53 0
 576 0020 F5E7     		b	.L42
 577              		.cfi_endproc
 578              	.LFE127:
 580              		.comm	yawrate_pid,2,2
 581              		.comm	straight_pid_r,2,2
 582              		.comm	straight_pid_l,2,2
 583              		.comm	y_sum,4,4
 584              		.comm	s_sum_r,4,4
 585              		.comm	s_sum_l,4,4
 586              		.section	.rodata.Mode_select.str1.4,"aMS",%progbits,1
 587              		.align	2
 588              	.LC0:
 589 0000 25640D00 		.ascii	"%d\015\000"
 590              		.section	.rodata.Show_log.str1.4,"aMS",%progbits,1
 591              		.align	2
 592              	.LC1:
 593 0000 0A613A25 		.ascii	"\012a:%d,c:%d,d:%d\015\012\000"
 593      642C633A 
 593      25642C64 
 593      3A25640D 
 593      0A00
 594 0012 0000     		.space	2
 595              	.LC2:
 596 0014 25660925 		.ascii	"%f\011%f\011%f\015\012\000"
 596      66092566 
 596      0D0A00
 597              		.text
 598              	.Letext0:
 599              		.file 2 "c:\\program files (x86)\\gnu tools arm embedded\\7 2017-q4-major\\arm-none-eabi\\include\
 600              		.file 3 "c:\\program files (x86)\\gnu tools arm embedded\\7 2017-q4-major\\arm-none-eabi\\include\
 601              		.file 4 "c:\\program files (x86)\\gnu tools arm embedded\\7 2017-q4-major\\arm-none-eabi\\include\
 602              		.file 5 "c:\\program files (x86)\\gnu tools arm embedded\\7 2017-q4-major\\arm-none-eabi\\include\
 603              		.file 6 "c:\\program files (x86)\\gnu tools arm embedded\\7 2017-q4-major\\lib\\gcc\\arm-none-eabi
 604              		.file 7 "c:\\program files (x86)\\gnu tools arm embedded\\7 2017-q4-major\\arm-none-eabi\\include\
 605              		.file 8 "Inc/global.h"
 606              		.file 9 "Drivers/CMSIS/Include/core_cm4.h"
 607              		.file 10 "Drivers/CMSIS/Device/ST/STM32F4xx/Include/system_stm32f4xx.h"
 608              		.file 11 "Drivers/CMSIS/Device/ST/STM32F4xx/Include/stm32f405xx.h"
 609              		.file 12 "Drivers/STM32F4xx_HAL_Driver/Inc/stm32f4xx_hal_def.h"
 610              		.file 13 "Drivers/STM32F4xx_HAL_Driver/Inc/stm32f4xx_hal_dma.h"
 611              		.file 14 "Drivers/STM32F4xx_HAL_Driver/Inc/stm32f4xx_hal_spi.h"
 612              		.file 15 "Drivers/STM32F4xx_HAL_Driver/Inc/stm32f4xx_hal_tim.h"
 613              		.file 16 "Inc/tim.h"
 614              		.file 17 "Inc/control.h"
 615              		.file 18 "Inc/spi.h"
 616              		.file 19 "c:\\program files (x86)\\gnu tools arm embedded\\7 2017-q4-major\\arm-none-eabi\\include
 617              		.file 20 "Inc/gpio.h"
 618              		.file 21 "Drivers/STM32F4xx_HAL_Driver/Inc/stm32f4xx_hal.h"
ARM GAS  C:\Users\kotaro\AppData\Local\Temp\ccSbM8LY.s 			page 15

