ARM GAS  C:\Users\kotaro\AppData\Local\Temp\cc0je98R.s 			page 1


   1              		.cpu cortex-m4
   2              		.eabi_attribute 27, 1
   3              		.eabi_attribute 28, 1
   4              		.eabi_attribute 20, 1
   5              		.eabi_attribute 21, 1
   6              		.eabi_attribute 23, 3
   7              		.eabi_attribute 24, 1
   8              		.eabi_attribute 25, 1
   9              		.eabi_attribute 26, 1
  10              		.eabi_attribute 30, 1
  11              		.eabi_attribute 34, 1
  12              		.eabi_attribute 18, 4
  13              		.file	"motion.c"
  14              		.text
  15              	.Ltext0:
  16              		.cfi_sections	.debug_frame
  17              		.section	.text.Normal_Turn_Half,"ax",%progbits
  18              		.align	1
  19              		.global	Normal_Turn_Half
  20              		.syntax unified
  21              		.thumb
  22              		.thumb_func
  23              		.fpu fpv4-sp-d16
  25              	Normal_Turn_Half:
  26              	.LFB126:
  27              		.file 1 "Src/motion.c"
   1:Src/motion.c  **** #include "motion.h"
   2:Src/motion.c  **** #include "tim.h"
   3:Src/motion.c  **** #include "global.h"
   4:Src/motion.c  **** #include "control.h"
   5:Src/motion.c  **** #include "gpio.h"
   6:Src/motion.c  **** #include "spi.h"
   7:Src/motion.c  **** #include "maze.h"
   8:Src/motion.c  **** 
   9:Src/motion.c  **** 
  10:Src/motion.c  **** void Normal_Turn_Half(void){
  28              		.loc 1 10 0
  29              		.cfi_startproc
  30              		@ args = 0, pretend = 0, frame = 0
  31              		@ frame_needed = 0, uses_anonymous_args = 0
  32 0000 08B5     		push	{r3, lr}
  33              	.LCFI0:
  34              		.cfi_def_cfa_offset 8
  35              		.cfi_offset 3, -8
  36              		.cfi_offset 14, -4
  37              	.L2:
  11:Src/motion.c  ****     while(1){
  12:Src/motion.c  ****         if(sensor.wall[0]==true && sensor.wall[3]==true){
  38              		.loc 1 12 0
  39 0002 154B     		ldr	r3, .L6
  40 0004 1B7E     		ldrb	r3, [r3, #24]	@ zero_extendqisi2
  41 0006 012B     		cmp	r3, #1
  42 0008 FBD1     		bne	.L2
  43              		.loc 1 12 0 is_stmt 0 discriminator 1
  44 000a 134B     		ldr	r3, .L6
  45 000c DB7E     		ldrb	r3, [r3, #27]	@ zero_extendqisi2
  46 000e 012B     		cmp	r3, #1
ARM GAS  C:\Users\kotaro\AppData\Local\Temp\cc0je98R.s 			page 2


  47 0010 F7D1     		bne	.L2
  13:Src/motion.c  ****             Output_Buzzer(HZ_C_H);
  48              		.loc 1 13 0 is_stmt 1
  49 0012 4C20     		movs	r0, #76
  50 0014 FFF7FEFF 		bl	Output_Buzzer
  51              	.LVL0:
  14:Src/motion.c  ****             break;
  15:Src/motion.c  ****         }
  16:Src/motion.c  ****     }
  17:Src/motion.c  ****     HAL_Delay(500);
  52              		.loc 1 17 0
  53 0018 4FF4FA70 		mov	r0, #500
  54 001c FFF7FEFF 		bl	HAL_Delay
  55              	.LVL1:
  18:Src/motion.c  ****     gyro_offset_calc_reset();
  56              		.loc 1 18 0
  57 0020 FFF7FEFF 		bl	gyro_offset_calc_reset
  58              	.LVL2:
  19:Src/motion.c  ****     Yawrate_Calc_fb(180,0,0);
  59              		.loc 1 19 0
  60 0024 0022     		movs	r2, #0
  61 0026 1146     		mov	r1, r2
  62 0028 B420     		movs	r0, #180
  63 002a FFF7FEFF 		bl	Yawrate_Calc_fb
  64              	.LVL3:
  20:Src/motion.c  ****     HAL_Delay(1500);
  65              		.loc 1 20 0
  66 002e 40F2DC50 		movw	r0, #1500
  67 0032 FFF7FEFF 		bl	HAL_Delay
  68              	.LVL4:
  21:Src/motion.c  ****     Output_Buzzer(HZ_C_H);
  69              		.loc 1 21 0
  70 0036 4C20     		movs	r0, #76
  71 0038 FFF7FEFF 		bl	Output_Buzzer
  72              	.LVL5:
  22:Src/motion.c  ****     flag.yawrate = ON;
  73              		.loc 1 22 0
  74 003c 074B     		ldr	r3, .L6+4
  75 003e 0122     		movs	r2, #1
  76 0040 9A80     		strh	r2, [r3, #4]	@ movhi
  77              	.L4:
  23:Src/motion.c  ****     while(1){
  24:Src/motion.c  ****         if(Push()==ON){
  78              		.loc 1 24 0
  79 0042 FFF7FEFF 		bl	Push
  80              	.LVL6:
  81 0046 0128     		cmp	r0, #1
  82 0048 FBD1     		bne	.L4
  25:Src/motion.c  ****             flag.yawrate = OFF;
  83              		.loc 1 25 0
  84 004a 044B     		ldr	r3, .L6+4
  85 004c 0022     		movs	r2, #0
  86 004e 9A80     		strh	r2, [r3, #4]	@ movhi
  26:Src/motion.c  ****             Output_Buzzer(HZ_A);
  87              		.loc 1 26 0
  88 0050 5B20     		movs	r0, #91
  89 0052 FFF7FEFF 		bl	Output_Buzzer
ARM GAS  C:\Users\kotaro\AppData\Local\Temp\cc0je98R.s 			page 3


  90              	.LVL7:
  27:Src/motion.c  ****             break;
  28:Src/motion.c  ****         }
  29:Src/motion.c  ****     }
  30:Src/motion.c  **** }
  91              		.loc 1 30 0
  92 0056 08BD     		pop	{r3, pc}
  93              	.L7:
  94              		.align	2
  95              	.L6:
  96 0058 00000000 		.word	sensor
  97 005c 00000000 		.word	flag
  98              		.cfi_endproc
  99              	.LFE126:
 101              		.section	.text.Turn_Half,"ax",%progbits
 102              		.align	1
 103              		.global	Turn_Half
 104              		.syntax unified
 105              		.thumb
 106              		.thumb_func
 107              		.fpu fpv4-sp-d16
 109              	Turn_Half:
 110              	.LFB127:
  31:Src/motion.c  **** 
  32:Src/motion.c  **** 
  33:Src/motion.c  **** void Turn_Half(void){
 111              		.loc 1 33 0
 112              		.cfi_startproc
 113              		@ args = 0, pretend = 0, frame = 0
 114              		@ frame_needed = 0, uses_anonymous_args = 0
 115 0000 08B5     		push	{r3, lr}
 116              	.LCFI1:
 117              		.cfi_def_cfa_offset 8
 118              		.cfi_offset 3, -8
 119              		.cfi_offset 14, -4
 120              	.L9:
  34:Src/motion.c  ****     while(1){
  35:Src/motion.c  ****         if(sensor.wall[0]==true && sensor.wall[3]==true){
 121              		.loc 1 35 0
 122 0002 154B     		ldr	r3, .L13
 123 0004 1B7E     		ldrb	r3, [r3, #24]	@ zero_extendqisi2
 124 0006 012B     		cmp	r3, #1
 125 0008 FBD1     		bne	.L9
 126              		.loc 1 35 0 is_stmt 0 discriminator 1
 127 000a 134B     		ldr	r3, .L13
 128 000c DB7E     		ldrb	r3, [r3, #27]	@ zero_extendqisi2
 129 000e 012B     		cmp	r3, #1
 130 0010 F7D1     		bne	.L9
  36:Src/motion.c  ****             Output_Buzzer(HZ_C_H);
 131              		.loc 1 36 0 is_stmt 1
 132 0012 4C20     		movs	r0, #76
 133 0014 FFF7FEFF 		bl	Output_Buzzer
 134              	.LVL8:
  37:Src/motion.c  ****             break;
  38:Src/motion.c  ****         }
  39:Src/motion.c  ****     }
  40:Src/motion.c  ****     gyro_offset_calc_reset();
ARM GAS  C:\Users\kotaro\AppData\Local\Temp\cc0je98R.s 			page 4


 135              		.loc 1 40 0
 136 0018 FFF7FEFF 		bl	gyro_offset_calc_reset
 137              	.LVL9:
  41:Src/motion.c  ****     Yawrate_Calc_fb(180,0,0);
 138              		.loc 1 41 0
 139 001c 0022     		movs	r2, #0
 140 001e 1146     		mov	r1, r2
 141 0020 B420     		movs	r0, #180
 142 0022 FFF7FEFF 		bl	Yawrate_Calc_fb
 143              	.LVL10:
  42:Src/motion.c  ****     Straight_Calc_Zero();
 144              		.loc 1 42 0
 145 0026 FFF7FEFF 		bl	Straight_Calc_Zero
 146              	.LVL11:
  43:Src/motion.c  ****     HAL_Delay(1500);
 147              		.loc 1 43 0
 148 002a 40F2DC50 		movw	r0, #1500
 149 002e FFF7FEFF 		bl	HAL_Delay
 150              	.LVL12:
  44:Src/motion.c  ****     Output_Buzzer(HZ_C_H);
 151              		.loc 1 44 0
 152 0032 4C20     		movs	r0, #76
 153 0034 FFF7FEFF 		bl	Output_Buzzer
 154              	.LVL13:
  45:Src/motion.c  ****     flag.yawrate = ON;
 155              		.loc 1 45 0
 156 0038 084B     		ldr	r3, .L13+4
 157 003a 0122     		movs	r2, #1
 158 003c 9A80     		strh	r2, [r3, #4]	@ movhi
  46:Src/motion.c  ****     flag.straight = ON;
 159              		.loc 1 46 0
 160 003e 5A80     		strh	r2, [r3, #2]	@ movhi
 161              	.L11:
  47:Src/motion.c  ****     while(1){
  48:Src/motion.c  ****         if(Push()==ON){
 162              		.loc 1 48 0
 163 0040 FFF7FEFF 		bl	Push
 164              	.LVL14:
 165 0044 0128     		cmp	r0, #1
 166 0046 FBD1     		bne	.L11
  49:Src/motion.c  ****             flag.yawrate = OFF;
 167              		.loc 1 49 0
 168 0048 044B     		ldr	r3, .L13+4
 169 004a 0022     		movs	r2, #0
 170 004c 9A80     		strh	r2, [r3, #4]	@ movhi
  50:Src/motion.c  ****             flag.straight = OFF;
 171              		.loc 1 50 0
 172 004e 5A80     		strh	r2, [r3, #2]	@ movhi
  51:Src/motion.c  ****             Output_Buzzer(HZ_A);
 173              		.loc 1 51 0
 174 0050 5B20     		movs	r0, #91
 175 0052 FFF7FEFF 		bl	Output_Buzzer
 176              	.LVL15:
  52:Src/motion.c  ****             break;
  53:Src/motion.c  ****         }
  54:Src/motion.c  ****     }
  55:Src/motion.c  **** }
ARM GAS  C:\Users\kotaro\AppData\Local\Temp\cc0je98R.s 			page 5


 177              		.loc 1 55 0
 178 0056 08BD     		pop	{r3, pc}
 179              	.L14:
 180              		.align	2
 181              	.L13:
 182 0058 00000000 		.word	sensor
 183 005c 00000000 		.word	flag
 184              		.cfi_endproc
 185              	.LFE127:
 187              		.section	.text.Normal_Ennkai,"ax",%progbits
 188              		.align	1
 189              		.global	Normal_Ennkai
 190              		.syntax unified
 191              		.thumb
 192              		.thumb_func
 193              		.fpu fpv4-sp-d16
 195              	Normal_Ennkai:
 196              	.LFB128:
  56:Src/motion.c  **** 
  57:Src/motion.c  **** /****************************************************************************************
  58:Src/motion.c  ****  * outline  : "ennkaigei"
  59:Src/motion.c  ****  * argument : void
  60:Src/motion.c  ****  * return   : void
  61:Src/motion.c  **** ********************************************************************************************/
  62:Src/motion.c  **** void Normal_Ennkai(void){
 197              		.loc 1 62 0
 198              		.cfi_startproc
 199              		@ args = 0, pretend = 0, frame = 0
 200              		@ frame_needed = 0, uses_anonymous_args = 0
 201 0000 08B5     		push	{r3, lr}
 202              	.LCFI2:
 203              		.cfi_def_cfa_offset 8
 204              		.cfi_offset 3, -8
 205              		.cfi_offset 14, -4
 206              	.L16:
  63:Src/motion.c  ****     while(1){
  64:Src/motion.c  ****         if(sensor.wall[0]==true && sensor.wall[3]==true){
 207              		.loc 1 64 0
 208 0002 144B     		ldr	r3, .L20
 209 0004 1B7E     		ldrb	r3, [r3, #24]	@ zero_extendqisi2
 210 0006 012B     		cmp	r3, #1
 211 0008 FBD1     		bne	.L16
 212              		.loc 1 64 0 is_stmt 0 discriminator 1
 213 000a 124B     		ldr	r3, .L20
 214 000c DB7E     		ldrb	r3, [r3, #27]	@ zero_extendqisi2
 215 000e 012B     		cmp	r3, #1
 216 0010 F7D1     		bne	.L16
  65:Src/motion.c  ****             Output_Buzzer(HZ_C_H);
 217              		.loc 1 65 0 is_stmt 1
 218 0012 4C20     		movs	r0, #76
 219 0014 FFF7FEFF 		bl	Output_Buzzer
 220              	.LVL16:
  66:Src/motion.c  ****             break;
  67:Src/motion.c  ****         }
  68:Src/motion.c  ****     }
  69:Src/motion.c  ****     HAL_Delay(500);
 221              		.loc 1 69 0
ARM GAS  C:\Users\kotaro\AppData\Local\Temp\cc0je98R.s 			page 6


 222 0018 4FF4FA70 		mov	r0, #500
 223 001c FFF7FEFF 		bl	HAL_Delay
 224              	.LVL17:
  70:Src/motion.c  ****     gyro_offset_calc_reset();
 225              		.loc 1 70 0
 226 0020 FFF7FEFF 		bl	gyro_offset_calc_reset
 227              	.LVL18:
  71:Src/motion.c  ****     Yawrate_Calc_Zero();
 228              		.loc 1 71 0
 229 0024 FFF7FEFF 		bl	Yawrate_Calc_Zero
 230              	.LVL19:
  72:Src/motion.c  ****     HAL_Delay(1500);
 231              		.loc 1 72 0
 232 0028 40F2DC50 		movw	r0, #1500
 233 002c FFF7FEFF 		bl	HAL_Delay
 234              	.LVL20:
  73:Src/motion.c  ****     Output_Buzzer(HZ_C_H);
 235              		.loc 1 73 0
 236 0030 4C20     		movs	r0, #76
 237 0032 FFF7FEFF 		bl	Output_Buzzer
 238              	.LVL21:
  74:Src/motion.c  ****     flag.yawrate = ON;
 239              		.loc 1 74 0
 240 0036 084B     		ldr	r3, .L20+4
 241 0038 0122     		movs	r2, #1
 242 003a 9A80     		strh	r2, [r3, #4]	@ movhi
 243              	.L18:
  75:Src/motion.c  ****     while(1){
  76:Src/motion.c  ****         if(Push()==ON){
 244              		.loc 1 76 0
 245 003c FFF7FEFF 		bl	Push
 246              	.LVL22:
 247 0040 0128     		cmp	r0, #1
 248 0042 FBD1     		bne	.L18
  77:Src/motion.c  ****             flag.yawrate = OFF;
 249              		.loc 1 77 0
 250 0044 044B     		ldr	r3, .L20+4
 251 0046 0022     		movs	r2, #0
 252 0048 9A80     		strh	r2, [r3, #4]	@ movhi
  78:Src/motion.c  ****             Output_Buzzer(HZ_A);
 253              		.loc 1 78 0
 254 004a 5B20     		movs	r0, #91
 255 004c FFF7FEFF 		bl	Output_Buzzer
 256              	.LVL23:
  79:Src/motion.c  ****             break;
  80:Src/motion.c  ****         }
  81:Src/motion.c  ****     }
  82:Src/motion.c  **** }
 257              		.loc 1 82 0
 258 0050 08BD     		pop	{r3, pc}
 259              	.L21:
 260 0052 00BF     		.align	2
 261              	.L20:
 262 0054 00000000 		.word	sensor
 263 0058 00000000 		.word	flag
 264              		.cfi_endproc
 265              	.LFE128:
ARM GAS  C:\Users\kotaro\AppData\Local\Temp\cc0je98R.s 			page 7


 267              		.section	.text.Ennkai,"ax",%progbits
 268              		.align	1
 269              		.global	Ennkai
 270              		.syntax unified
 271              		.thumb
 272              		.thumb_func
 273              		.fpu fpv4-sp-d16
 275              	Ennkai:
 276              	.LFB129:
  83:Src/motion.c  **** 
  84:Src/motion.c  **** void Ennkai(void){
 277              		.loc 1 84 0
 278              		.cfi_startproc
 279              		@ args = 0, pretend = 0, frame = 0
 280              		@ frame_needed = 0, uses_anonymous_args = 0
 281 0000 08B5     		push	{r3, lr}
 282              	.LCFI3:
 283              		.cfi_def_cfa_offset 8
 284              		.cfi_offset 3, -8
 285              		.cfi_offset 14, -4
 286              	.L23:
  85:Src/motion.c  ****     while(1){
  86:Src/motion.c  ****         if(sensor.wall[0]==true && sensor.wall[3]==true){
 287              		.loc 1 86 0
 288 0002 164B     		ldr	r3, .L27
 289 0004 1B7E     		ldrb	r3, [r3, #24]	@ zero_extendqisi2
 290 0006 012B     		cmp	r3, #1
 291 0008 FBD1     		bne	.L23
 292              		.loc 1 86 0 is_stmt 0 discriminator 1
 293 000a 144B     		ldr	r3, .L27
 294 000c DB7E     		ldrb	r3, [r3, #27]	@ zero_extendqisi2
 295 000e 012B     		cmp	r3, #1
 296 0010 F7D1     		bne	.L23
  87:Src/motion.c  ****             Output_Buzzer(HZ_C_H);
 297              		.loc 1 87 0 is_stmt 1
 298 0012 4C20     		movs	r0, #76
 299 0014 FFF7FEFF 		bl	Output_Buzzer
 300              	.LVL24:
  88:Src/motion.c  ****             break;
  89:Src/motion.c  ****         }
  90:Src/motion.c  ****     }
  91:Src/motion.c  ****     HAL_Delay(500);
 301              		.loc 1 91 0
 302 0018 4FF4FA70 		mov	r0, #500
 303 001c FFF7FEFF 		bl	HAL_Delay
 304              	.LVL25:
  92:Src/motion.c  ****     gyro_offset_calc_reset();
 305              		.loc 1 92 0
 306 0020 FFF7FEFF 		bl	gyro_offset_calc_reset
 307              	.LVL26:
  93:Src/motion.c  ****     Yawrate_Calc_Zero();
 308              		.loc 1 93 0
 309 0024 FFF7FEFF 		bl	Yawrate_Calc_Zero
 310              	.LVL27:
  94:Src/motion.c  ****     Straight_Calc_Zero();
 311              		.loc 1 94 0
 312 0028 FFF7FEFF 		bl	Straight_Calc_Zero
ARM GAS  C:\Users\kotaro\AppData\Local\Temp\cc0je98R.s 			page 8


 313              	.LVL28:
  95:Src/motion.c  ****     HAL_Delay(1500);
 314              		.loc 1 95 0
 315 002c 40F2DC50 		movw	r0, #1500
 316 0030 FFF7FEFF 		bl	HAL_Delay
 317              	.LVL29:
  96:Src/motion.c  ****     Output_Buzzer(HZ_C_H);
 318              		.loc 1 96 0
 319 0034 4C20     		movs	r0, #76
 320 0036 FFF7FEFF 		bl	Output_Buzzer
 321              	.LVL30:
  97:Src/motion.c  ****     flag.yawrate = ON;
 322              		.loc 1 97 0
 323 003a 094B     		ldr	r3, .L27+4
 324 003c 0122     		movs	r2, #1
 325 003e 9A80     		strh	r2, [r3, #4]	@ movhi
  98:Src/motion.c  ****     flag.straight = ON;
 326              		.loc 1 98 0
 327 0040 5A80     		strh	r2, [r3, #2]	@ movhi
 328              	.L25:
  99:Src/motion.c  ****     while(1){
 100:Src/motion.c  ****         if(Push()==ON){
 329              		.loc 1 100 0
 330 0042 FFF7FEFF 		bl	Push
 331              	.LVL31:
 332 0046 0128     		cmp	r0, #1
 333 0048 FBD1     		bne	.L25
 101:Src/motion.c  ****             flag.yawrate = OFF;
 334              		.loc 1 101 0
 335 004a 054B     		ldr	r3, .L27+4
 336 004c 0022     		movs	r2, #0
 337 004e 9A80     		strh	r2, [r3, #4]	@ movhi
 102:Src/motion.c  ****             flag.straight = OFF;
 338              		.loc 1 102 0
 339 0050 5A80     		strh	r2, [r3, #2]	@ movhi
 103:Src/motion.c  ****             Output_Buzzer(HZ_A);
 340              		.loc 1 103 0
 341 0052 5B20     		movs	r0, #91
 342 0054 FFF7FEFF 		bl	Output_Buzzer
 343              	.LVL32:
 104:Src/motion.c  ****             break;
 105:Src/motion.c  ****         }
 106:Src/motion.c  ****     }
 107:Src/motion.c  **** }
 344              		.loc 1 107 0
 345 0058 08BD     		pop	{r3, pc}
 346              	.L28:
 347 005a 00BF     		.align	2
 348              	.L27:
 349 005c 00000000 		.word	sensor
 350 0060 00000000 		.word	flag
 351              		.cfi_endproc
 352              	.LFE129:
 354              		.section	.text.Normal_Straight,"ax",%progbits
 355              		.align	1
 356              		.global	Normal_Straight
 357              		.syntax unified
ARM GAS  C:\Users\kotaro\AppData\Local\Temp\cc0je98R.s 			page 9


 358              		.thumb
 359              		.thumb_func
 360              		.fpu fpv4-sp-d16
 362              	Normal_Straight:
 363              	.LFB130:
 108:Src/motion.c  **** 
 109:Src/motion.c  **** 
 110:Src/motion.c  **** /****************************************************************************************
 111:Src/motion.c  ****  * outline  : straight run one block by feadbuck control
 112:Src/motion.c  ****  * argument : void
 113:Src/motion.c  ****  * return   : void
 114:Src/motion.c  **** ********************************************************************************************/
 115:Src/motion.c  **** void Normal_Straight(void){
 364              		.loc 1 115 0
 365              		.cfi_startproc
 366              		@ args = 0, pretend = 0, frame = 0
 367              		@ frame_needed = 0, uses_anonymous_args = 0
 368 0000 08B5     		push	{r3, lr}
 369              	.LCFI4:
 370              		.cfi_def_cfa_offset 8
 371              		.cfi_offset 3, -8
 372              		.cfi_offset 14, -4
 373              	.L30:
 116:Src/motion.c  ****     while(1){
 117:Src/motion.c  ****         if(sensor.wall[0]==true && sensor.wall[3]==true){
 374              		.loc 1 117 0
 375 0002 144B     		ldr	r3, .L34
 376 0004 1B7E     		ldrb	r3, [r3, #24]	@ zero_extendqisi2
 377 0006 012B     		cmp	r3, #1
 378 0008 FBD1     		bne	.L30
 379              		.loc 1 117 0 is_stmt 0 discriminator 1
 380 000a 124B     		ldr	r3, .L34
 381 000c DB7E     		ldrb	r3, [r3, #27]	@ zero_extendqisi2
 382 000e 012B     		cmp	r3, #1
 383 0010 F7D1     		bne	.L30
 118:Src/motion.c  ****             Output_Buzzer(HZ_C_H);
 384              		.loc 1 118 0 is_stmt 1
 385 0012 4C20     		movs	r0, #76
 386 0014 FFF7FEFF 		bl	Output_Buzzer
 387              	.LVL33:
 119:Src/motion.c  ****             break;
 120:Src/motion.c  ****         }
 121:Src/motion.c  ****     }
 122:Src/motion.c  ****     HAL_Delay(500);
 388              		.loc 1 122 0
 389 0018 4FF4FA70 		mov	r0, #500
 390 001c FFF7FEFF 		bl	HAL_Delay
 391              	.LVL34:
 123:Src/motion.c  ****     Straight_Calc_fb(180,0,0);
 392              		.loc 1 123 0
 393 0020 0022     		movs	r2, #0
 394 0022 1146     		mov	r1, r2
 395 0024 B420     		movs	r0, #180
 396 0026 FFF7FEFF 		bl	Straight_Calc_fb
 397              	.LVL35:
 124:Src/motion.c  ****     HAL_Delay(1000);
 398              		.loc 1 124 0
ARM GAS  C:\Users\kotaro\AppData\Local\Temp\cc0je98R.s 			page 10


 399 002a 4FF47A70 		mov	r0, #1000
 400 002e FFF7FEFF 		bl	HAL_Delay
 401              	.LVL36:
 125:Src/motion.c  ****     Output_Buzzer(HZ_C_H);
 402              		.loc 1 125 0
 403 0032 4C20     		movs	r0, #76
 404 0034 FFF7FEFF 		bl	Output_Buzzer
 405              	.LVL37:
 126:Src/motion.c  ****     flag.straight = ON;
 406              		.loc 1 126 0
 407 0038 074B     		ldr	r3, .L34+4
 408 003a 0122     		movs	r2, #1
 409 003c 5A80     		strh	r2, [r3, #2]	@ movhi
 410              	.L32:
 127:Src/motion.c  ****     while(1){
 128:Src/motion.c  ****         if(Push()==ON){
 411              		.loc 1 128 0
 412 003e FFF7FEFF 		bl	Push
 413              	.LVL38:
 414 0042 0128     		cmp	r0, #1
 415 0044 FBD1     		bne	.L32
 129:Src/motion.c  ****             flag.straight = OFF;
 416              		.loc 1 129 0
 417 0046 044B     		ldr	r3, .L34+4
 418 0048 0022     		movs	r2, #0
 419 004a 5A80     		strh	r2, [r3, #2]	@ movhi
 130:Src/motion.c  ****             Output_Buzzer(HZ_A);
 420              		.loc 1 130 0
 421 004c 5B20     		movs	r0, #91
 422 004e FFF7FEFF 		bl	Output_Buzzer
 423              	.LVL39:
 131:Src/motion.c  ****             break;
 132:Src/motion.c  ****         }
 133:Src/motion.c  ****     }
 134:Src/motion.c  **** }
 424              		.loc 1 134 0
 425 0052 08BD     		pop	{r3, pc}
 426              	.L35:
 427              		.align	2
 428              	.L34:
 429 0054 00000000 		.word	sensor
 430 0058 00000000 		.word	flag
 431              		.cfi_endproc
 432              	.LFE130:
 434              		.section	.text.Straight,"ax",%progbits
 435              		.align	1
 436              		.global	Straight
 437              		.syntax unified
 438              		.thumb
 439              		.thumb_func
 440              		.fpu fpv4-sp-d16
 442              	Straight:
 443              	.LFB131:
 135:Src/motion.c  **** 
 136:Src/motion.c  **** 
 137:Src/motion.c  **** /****************************************************************************************
 138:Src/motion.c  ****  * outline  : straight one block by encoder and gyro
ARM GAS  C:\Users\kotaro\AppData\Local\Temp\cc0je98R.s 			page 11


 139:Src/motion.c  ****  * argument : void
 140:Src/motion.c  ****  * return   : void
 141:Src/motion.c  **** ********************************************************************************************/
 142:Src/motion.c  **** void Straight(void){
 444              		.loc 1 142 0
 445              		.cfi_startproc
 446              		@ args = 0, pretend = 0, frame = 0
 447              		@ frame_needed = 0, uses_anonymous_args = 0
 448 0000 08B5     		push	{r3, lr}
 449              	.LCFI5:
 450              		.cfi_def_cfa_offset 8
 451              		.cfi_offset 3, -8
 452              		.cfi_offset 14, -4
 453              	.L37:
 143:Src/motion.c  ****     while(1){
 144:Src/motion.c  ****         if(sensor.wall[0]==true && sensor.wall[3]==true){
 454              		.loc 1 144 0
 455 0002 154B     		ldr	r3, .L41
 456 0004 1B7E     		ldrb	r3, [r3, #24]	@ zero_extendqisi2
 457 0006 012B     		cmp	r3, #1
 458 0008 FBD1     		bne	.L37
 459              		.loc 1 144 0 is_stmt 0 discriminator 1
 460 000a 134B     		ldr	r3, .L41
 461 000c DB7E     		ldrb	r3, [r3, #27]	@ zero_extendqisi2
 462 000e 012B     		cmp	r3, #1
 463 0010 F7D1     		bne	.L37
 145:Src/motion.c  ****             Output_Buzzer(HZ_C_H);
 464              		.loc 1 145 0 is_stmt 1
 465 0012 4C20     		movs	r0, #76
 466 0014 FFF7FEFF 		bl	Output_Buzzer
 467              	.LVL40:
 146:Src/motion.c  ****             break;
 147:Src/motion.c  ****         }
 148:Src/motion.c  ****     }
 149:Src/motion.c  ****     gyro_offset_calc_reset();
 468              		.loc 1 149 0
 469 0018 FFF7FEFF 		bl	gyro_offset_calc_reset
 470              	.LVL41:
 150:Src/motion.c  ****     Straight_Calc_fb(180.0f,0.0f,0.0f);
 471              		.loc 1 150 0
 472 001c 0022     		movs	r2, #0
 473 001e 1146     		mov	r1, r2
 474 0020 B420     		movs	r0, #180
 475 0022 FFF7FEFF 		bl	Straight_Calc_fb
 476              	.LVL42:
 151:Src/motion.c  ****     Yawrate_Calc_Zero();
 477              		.loc 1 151 0
 478 0026 FFF7FEFF 		bl	Yawrate_Calc_Zero
 479              	.LVL43:
 152:Src/motion.c  ****     HAL_Delay(1000);
 480              		.loc 1 152 0
 481 002a 4FF47A70 		mov	r0, #1000
 482 002e FFF7FEFF 		bl	HAL_Delay
 483              	.LVL44:
 153:Src/motion.c  ****     Output_Buzzer(HZ_C_H);
 484              		.loc 1 153 0
 485 0032 4C20     		movs	r0, #76
ARM GAS  C:\Users\kotaro\AppData\Local\Temp\cc0je98R.s 			page 12


 486 0034 FFF7FEFF 		bl	Output_Buzzer
 487              	.LVL45:
 154:Src/motion.c  ****     flag.straight = ON;
 488              		.loc 1 154 0
 489 0038 084B     		ldr	r3, .L41+4
 490 003a 0122     		movs	r2, #1
 491 003c 5A80     		strh	r2, [r3, #2]	@ movhi
 155:Src/motion.c  ****     flag.yawrate = ON;
 492              		.loc 1 155 0
 493 003e 9A80     		strh	r2, [r3, #4]	@ movhi
 494              	.L39:
 156:Src/motion.c  ****     while(1){
 157:Src/motion.c  ****         if(Push()==ON){
 495              		.loc 1 157 0
 496 0040 FFF7FEFF 		bl	Push
 497              	.LVL46:
 498 0044 0128     		cmp	r0, #1
 499 0046 FBD1     		bne	.L39
 158:Src/motion.c  ****             flag.straight = OFF;
 500              		.loc 1 158 0
 501 0048 044B     		ldr	r3, .L41+4
 502 004a 0022     		movs	r2, #0
 503 004c 5A80     		strh	r2, [r3, #2]	@ movhi
 159:Src/motion.c  ****             flag.yawrate = OFF;
 504              		.loc 1 159 0
 505 004e 9A80     		strh	r2, [r3, #4]	@ movhi
 160:Src/motion.c  ****             Output_Buzzer(HZ_A);
 506              		.loc 1 160 0
 507 0050 5B20     		movs	r0, #91
 508 0052 FFF7FEFF 		bl	Output_Buzzer
 509              	.LVL47:
 161:Src/motion.c  ****             break;
 162:Src/motion.c  ****         }
 163:Src/motion.c  ****     }
 164:Src/motion.c  **** }
 510              		.loc 1 164 0
 511 0056 08BD     		pop	{r3, pc}
 512              	.L42:
 513              		.align	2
 514              	.L41:
 515 0058 00000000 		.word	sensor
 516 005c 00000000 		.word	flag
 517              		.cfi_endproc
 518              	.LFE131:
 520              		.global	__aeabi_f2d
 521              		.section	.text.Show_log,"ax",%progbits
 522              		.align	1
 523              		.global	Show_log
 524              		.syntax unified
 525              		.thumb
 526              		.thumb_func
 527              		.fpu fpv4-sp-d16
 529              	Show_log:
 530              	.LFB132:
 165:Src/motion.c  **** 
 166:Src/motion.c  **** 
 167:Src/motion.c  **** /****************************************************************************************
ARM GAS  C:\Users\kotaro\AppData\Local\Temp\cc0je98R.s 			page 13


 168:Src/motion.c  ****  * outline  : show log
 169:Src/motion.c  ****  * argument : void
 170:Src/motion.c  ****  * return   : void
 171:Src/motion.c  **** ********************************************************************************************/
 172:Src/motion.c  **** void Show_log(void){
 531              		.loc 1 172 0
 532              		.cfi_startproc
 533              		@ args = 0, pretend = 0, frame = 0
 534              		@ frame_needed = 0, uses_anonymous_args = 0
 535 0000 2DE9F041 		push	{r4, r5, r6, r7, r8, lr}
 536              	.LCFI6:
 537              		.cfi_def_cfa_offset 24
 538              		.cfi_offset 4, -24
 539              		.cfi_offset 5, -20
 540              		.cfi_offset 6, -16
 541              		.cfi_offset 7, -12
 542              		.cfi_offset 8, -8
 543              		.cfi_offset 14, -4
 544 0004 84B0     		sub	sp, sp, #16
 545              	.LCFI7:
 546              		.cfi_def_cfa_offset 40
 173:Src/motion.c  ****     flag.ir_led = OFF;
 547              		.loc 1 173 0
 548 0006 0024     		movs	r4, #0
 549 0008 1D4B     		ldr	r3, .L50
 550 000a DC80     		strh	r4, [r3, #6]	@ movhi
 174:Src/motion.c  ****     printf("\na:%d,c:%d,d:%d\r\n",accel_T,constant_T,decrease_T);
 551              		.loc 1 174 0
 552 000c 1D4B     		ldr	r3, .L50+4
 553 000e 1B88     		ldrh	r3, [r3]
 554 0010 1D4A     		ldr	r2, .L50+8
 555 0012 1288     		ldrh	r2, [r2]
 556 0014 1D49     		ldr	r1, .L50+12
 557 0016 0988     		ldrh	r1, [r1]
 558 0018 1D48     		ldr	r0, .L50+16
 559 001a FFF7FEFF 		bl	printf
 560              	.LVL48:
 561              	.L44:
 562              	.LBB2:
 175:Src/motion.c  ****     for(uint16_t i=0;i<3000;i++){
 563              		.loc 1 175 0 discriminator 1
 564 001e 40F6B733 		movw	r3, #2999
 565 0022 9C42     		cmp	r4, r3
 566 0024 29D8     		bhi	.L43
 176:Src/motion.c  ****         printf("%f\t%f\t%f\r\n",log_calc[i],log_enc[0][i],log_enc[1][i]);
 567              		.loc 1 176 0
 568 0026 A200     		lsls	r2, r4, #2
 569 0028 1A49     		ldr	r1, .L50+20
 570 002a 1144     		add	r1, r1, r2
 571 002c 1A4B     		ldr	r3, .L50+24
 572 002e 1A44     		add	r2, r2, r3
 573 0030 1568     		ldr	r5, [r2]	@ float
 574 0032 04F6B832 		addw	r2, r4, #3000
 575 0036 03EB8203 		add	r3, r3, r2, lsl #2
 576 003a D3F80080 		ldr	r8, [r3]	@ float
 577 003e 0868     		ldr	r0, [r1]	@ float
 578 0040 FFF7FEFF 		bl	__aeabi_f2d
ARM GAS  C:\Users\kotaro\AppData\Local\Temp\cc0je98R.s 			page 14


 579              	.LVL49:
 580 0044 0646     		mov	r6, r0
 581 0046 0F46     		mov	r7, r1
 582 0048 4046     		mov	r0, r8	@ float
 583 004a FFF7FEFF 		bl	__aeabi_f2d
 584              	.LVL50:
 585 004e CDE90201 		strd	r0, [sp, #8]
 586 0052 2846     		mov	r0, r5	@ float
 587 0054 FFF7FEFF 		bl	__aeabi_f2d
 588              	.LVL51:
 589 0058 CDE90001 		strd	r0, [sp]
 590 005c 3246     		mov	r2, r6
 591 005e 3B46     		mov	r3, r7
 592 0060 0E48     		ldr	r0, .L50+28
 593 0062 FFF7FEFF 		bl	printf
 594              	.LVL52:
 177:Src/motion.c  ****         if(Push()==ON){
 595              		.loc 1 177 0
 596 0066 FFF7FEFF 		bl	Push
 597              	.LVL53:
 598 006a 0128     		cmp	r0, #1
 599 006c 02D0     		beq	.L49
 175:Src/motion.c  ****     for(uint16_t i=0;i<3000;i++){
 600              		.loc 1 175 0 discriminator 2
 601 006e 0134     		adds	r4, r4, #1
 602              	.LVL54:
 603 0070 A4B2     		uxth	r4, r4
 604              	.LVL55:
 605 0072 D4E7     		b	.L44
 606              	.L49:
 178:Src/motion.c  ****             Output_Buzzer(HZ_A);
 607              		.loc 1 178 0
 608 0074 5B20     		movs	r0, #91
 609 0076 FFF7FEFF 		bl	Output_Buzzer
 610              	.LVL56:
 611              	.L43:
 612              	.LBE2:
 179:Src/motion.c  ****             break;
 180:Src/motion.c  ****         }
 181:Src/motion.c  ****     }
 182:Src/motion.c  **** }
 613              		.loc 1 182 0
 614 007a 04B0     		add	sp, sp, #16
 615              	.LCFI8:
 616              		.cfi_def_cfa_offset 24
 617              		@ sp needed
 618 007c BDE8F081 		pop	{r4, r5, r6, r7, r8, pc}
 619              	.LVL57:
 620              	.L51:
 621              		.align	2
 622              	.L50:
 623 0080 00000000 		.word	flag
 624 0084 00000000 		.word	decrease_T
 625 0088 00000000 		.word	constant_T
 626 008c 00000000 		.word	accel_T
 627 0090 00000000 		.word	.LC0
 628 0094 00000000 		.word	log_calc
ARM GAS  C:\Users\kotaro\AppData\Local\Temp\cc0je98R.s 			page 15


 629 0098 00000000 		.word	log_enc
 630 009c 14000000 		.word	.LC1
 631              		.cfi_endproc
 632              	.LFE132:
 634              		.section	.text.Sensor_Mode,"ax",%progbits
 635              		.align	1
 636              		.global	Sensor_Mode
 637              		.syntax unified
 638              		.thumb
 639              		.thumb_func
 640              		.fpu fpv4-sp-d16
 642              	Sensor_Mode:
 643              	.LFB133:
 183:Src/motion.c  **** 
 184:Src/motion.c  **** void Sensor_Mode(void){
 644              		.loc 1 184 0
 645              		.cfi_startproc
 646              		@ args = 0, pretend = 0, frame = 0
 647              		@ frame_needed = 0, uses_anonymous_args = 0
 648 0000 08B5     		push	{r3, lr}
 649              	.LCFI9:
 650              		.cfi_def_cfa_offset 8
 651              		.cfi_offset 3, -8
 652              		.cfi_offset 14, -4
 653              	.L53:
 185:Src/motion.c  ****     while(1){
 186:Src/motion.c  ****         flag.ir_led = ON;
 654              		.loc 1 186 0
 655 0002 084B     		ldr	r3, .L55
 656 0004 0122     		movs	r2, #1
 657 0006 DA80     		strh	r2, [r3, #6]	@ movhi
 187:Src/motion.c  ****         Sensor_Check();
 658              		.loc 1 187 0
 659 0008 FFF7FEFF 		bl	Sensor_Check
 660              	.LVL58:
 188:Src/motion.c  ****         if(Push()==ON){
 661              		.loc 1 188 0
 662 000c FFF7FEFF 		bl	Push
 663              	.LVL59:
 664 0010 0128     		cmp	r0, #1
 665 0012 F6D1     		bne	.L53
 189:Src/motion.c  ****             Output_Buzzer(HZ_A);
 666              		.loc 1 189 0
 667 0014 5B20     		movs	r0, #91
 668 0016 FFF7FEFF 		bl	Output_Buzzer
 669              	.LVL60:
 190:Src/motion.c  ****             flag.ir_led = OFF;
 670              		.loc 1 190 0
 671 001a 024B     		ldr	r3, .L55
 672 001c 0022     		movs	r2, #0
 673 001e DA80     		strh	r2, [r3, #6]	@ movhi
 191:Src/motion.c  ****             break;
 192:Src/motion.c  ****         }
 193:Src/motion.c  ****     }
 194:Src/motion.c  **** }
 674              		.loc 1 194 0
 675 0020 08BD     		pop	{r3, pc}
ARM GAS  C:\Users\kotaro\AppData\Local\Temp\cc0je98R.s 			page 16


 676              	.L56:
 677 0022 00BF     		.align	2
 678              	.L55:
 679 0024 00000000 		.word	flag
 680              		.cfi_endproc
 681              	.LFE133:
 683              		.section	.text.Test_Create_Map,"ax",%progbits
 684              		.align	1
 685              		.global	Test_Create_Map
 686              		.syntax unified
 687              		.thumb
 688              		.thumb_func
 689              		.fpu fpv4-sp-d16
 691              	Test_Create_Map:
 692              	.LFB134:
 195:Src/motion.c  **** 
 196:Src/motion.c  **** void Test_Create_Map(void){
 693              		.loc 1 196 0
 694              		.cfi_startproc
 695              		@ args = 0, pretend = 0, frame = 0
 696              		@ frame_needed = 0, uses_anonymous_args = 0
 697 0000 08B5     		push	{r3, lr}
 698              	.LCFI10:
 699              		.cfi_def_cfa_offset 8
 700              		.cfi_offset 3, -8
 701              		.cfi_offset 14, -4
 197:Src/motion.c  ****     flag.ir_led = OFF;
 702              		.loc 1 197 0
 703 0002 064B     		ldr	r3, .L59
 704 0004 0022     		movs	r2, #0
 705 0006 DA80     		strh	r2, [r3, #6]	@ movhi
 198:Src/motion.c  **** 
 199:Src/motion.c  ****     Maze_Set();
 706              		.loc 1 199 0
 707 0008 FFF7FEFF 		bl	Maze_Set
 708              	.LVL61:
 200:Src/motion.c  ****     Init_maze();
 709              		.loc 1 200 0
 710 000c FFF7FEFF 		bl	Init_maze
 711              	.LVL62:
 201:Src/motion.c  ****     MAZE_Create_Step();
 712              		.loc 1 201 0
 713 0010 FFF7FEFF 		bl	MAZE_Create_Step
 714              	.LVL63:
 202:Src/motion.c  ****     MAZE_Out_Step();
 715              		.loc 1 202 0
 716 0014 FFF7FEFF 		bl	MAZE_Out_Step
 717              	.LVL64:
 203:Src/motion.c  **** }
 718              		.loc 1 203 0
 719 0018 08BD     		pop	{r3, pc}
 720              	.L60:
 721 001a 00BF     		.align	2
 722              	.L59:
 723 001c 00000000 		.word	flag
 724              		.cfi_endproc
 725              	.LFE134:
ARM GAS  C:\Users\kotaro\AppData\Local\Temp\cc0je98R.s 			page 17


 727              		.section	.text.Batt_Check,"ax",%progbits
 728              		.align	1
 729              		.global	Batt_Check
 730              		.syntax unified
 731              		.thumb
 732              		.thumb_func
 733              		.fpu fpv4-sp-d16
 735              	Batt_Check:
 736              	.LFB135:
 204:Src/motion.c  **** 
 205:Src/motion.c  **** /****************************************************************************************
 206:Src/motion.c  ****  * outline  : normalize battery (12bit -> dec)
 207:Src/motion.c  ****  * argument : void
 208:Src/motion.c  ****  * return   : void
 209:Src/motion.c  **** ********************************************************************************************/
 210:Src/motion.c  **** void Batt_Check(void)
 211:Src/motion.c  **** {
 737              		.loc 1 211 0
 738              		.cfi_startproc
 739              		@ args = 0, pretend = 0, frame = 0
 740              		@ frame_needed = 0, uses_anonymous_args = 0
 741 0000 08B5     		push	{r3, lr}
 742              	.LCFI11:
 743              		.cfi_def_cfa_offset 8
 744              		.cfi_offset 3, -8
 745              		.cfi_offset 14, -4
 746              	.LVL65:
 747              	.LBB3:
 212:Src/motion.c  ****   float batt=0;
 213:Src/motion.c  ****   for(int i=0;i<50;i++){
 748              		.loc 1 213 0
 749 0002 0023     		movs	r3, #0
 750              	.LBE3:
 212:Src/motion.c  ****   float batt=0;
 751              		.loc 1 212 0
 752 0004 9FED177A 		vldr.32	s14, .L65
 753              	.LBB4:
 754              		.loc 1 213 0
 755 0008 08E0     		b	.L62
 756              	.LVL66:
 757              	.L63:
 214:Src/motion.c  ****     batt += batt_analog;
 758              		.loc 1 214 0 discriminator 3
 759 000a 174A     		ldr	r2, .L65+4
 760 000c 1288     		ldrh	r2, [r2]
 761 000e 07EE902A 		vmov	s15, r2	@ int
 762 0012 F8EEE77A 		vcvt.f32.s32	s15, s15
 763 0016 37EE277A 		vadd.f32	s14, s14, s15
 764              	.LVL67:
 213:Src/motion.c  ****     batt += batt_analog;
 765              		.loc 1 213 0 discriminator 3
 766 001a 0133     		adds	r3, r3, #1
 767              	.LVL68:
 768              	.L62:
 213:Src/motion.c  ****     batt += batt_analog;
 769              		.loc 1 213 0 is_stmt 0 discriminator 1
 770 001c 312B     		cmp	r3, #49
ARM GAS  C:\Users\kotaro\AppData\Local\Temp\cc0je98R.s 			page 18


 771 001e F4DD     		ble	.L63
 772              	.LBE4:
 215:Src/motion.c  ****   }
 216:Src/motion.c  ****   batt /= 50.0;
 773              		.loc 1 216 0 is_stmt 1
 774 0020 DFED127A 		vldr.32	s15, .L65+8
 775 0024 C7EE276A 		vdiv.f32	s13, s14, s15
 776              	.LVL69:
 217:Src/motion.c  ****   batt = batt/4095.0f*133.0f/33.0f*3.3f;
 777              		.loc 1 217 0
 778 0028 DFED117A 		vldr.32	s15, .L65+12
 779 002c 86EEA77A 		vdiv.f32	s14, s13, s15
 780 0030 DFED107A 		vldr.32	s15, .L65+16
 781 0034 27EE277A 		vmul.f32	s14, s14, s15
 782 0038 DFED0F6A 		vldr.32	s13, .L65+20
 783              	.LVL70:
 784 003c C7EE267A 		vdiv.f32	s15, s14, s13
 785 0040 9FED0E7A 		vldr.32	s14, .L65+24
 786 0044 67EE877A 		vmul.f32	s15, s15, s14
 787              	.LVL71:
 218:Src/motion.c  ****   batt_Vcc = batt;
 788              		.loc 1 218 0
 789 0048 0D4B     		ldr	r3, .L65+28
 790              	.LVL72:
 791 004a C3ED007A 		vstr.32	s15, [r3]
 219:Src/motion.c  ****   printf("\nbatt:%lf\r\n",batt_Vcc);
 792              		.loc 1 219 0
 793 004e 17EE900A 		vmov	r0, s15
 794 0052 FFF7FEFF 		bl	__aeabi_f2d
 795              	.LVL73:
 796 0056 0246     		mov	r2, r0
 797 0058 0B46     		mov	r3, r1
 798 005a 0A48     		ldr	r0, .L65+32
 799 005c FFF7FEFF 		bl	printf
 800              	.LVL74:
 220:Src/motion.c  **** }
 801              		.loc 1 220 0
 802 0060 08BD     		pop	{r3, pc}
 803              	.L66:
 804 0062 00BF     		.align	2
 805              	.L65:
 806 0064 00000000 		.word	0
 807 0068 00000000 		.word	batt_analog
 808 006c 00004842 		.word	1112014848
 809 0070 00F07F45 		.word	1166012416
 810 0074 00000543 		.word	1124401152
 811 0078 00000442 		.word	1107558400
 812 007c 33335340 		.word	1079194419
 813 0080 00000000 		.word	batt_Vcc
 814 0084 00000000 		.word	.LC2
 815              		.cfi_endproc
 816              	.LFE135:
 818              		.comm	yawrate_pid,2,2
 819              		.comm	straight_pid_r,2,2
 820              		.comm	straight_pid_l,2,2
 821              		.comm	y_sum,4,4
 822              		.comm	s_sum_r,4,4
ARM GAS  C:\Users\kotaro\AppData\Local\Temp\cc0je98R.s 			page 19


 823              		.comm	s_sum_l,4,4
 824              		.section	.rodata.Batt_Check.str1.4,"aMS",%progbits,1
 825              		.align	2
 826              	.LC2:
 827 0000 0A626174 		.ascii	"\012batt:%lf\015\012\000"
 827      743A256C 
 827      660D0A00 
 828              		.section	.rodata.Show_log.str1.4,"aMS",%progbits,1
 829              		.align	2
 830              	.LC0:
 831 0000 0A613A25 		.ascii	"\012a:%d,c:%d,d:%d\015\012\000"
 831      642C633A 
 831      25642C64 
 831      3A25640D 
 831      0A00
 832 0012 0000     		.space	2
 833              	.LC1:
 834 0014 25660925 		.ascii	"%f\011%f\011%f\015\012\000"
 834      66092566 
 834      0D0A00
 835              		.text
 836              	.Letext0:
 837              		.file 2 "c:\\program files (x86)\\gnu tools arm embedded\\7 2017-q4-major\\arm-none-eabi\\include\
 838              		.file 3 "c:\\program files (x86)\\gnu tools arm embedded\\7 2017-q4-major\\arm-none-eabi\\include\
 839              		.file 4 "Drivers/CMSIS/Include/core_cm4.h"
 840              		.file 5 "Drivers/CMSIS/Device/ST/STM32F4xx/Include/system_stm32f4xx.h"
 841              		.file 6 "Drivers/CMSIS/Device/ST/STM32F4xx/Include/stm32f405xx.h"
 842              		.file 7 "c:\\program files (x86)\\gnu tools arm embedded\\7 2017-q4-major\\arm-none-eabi\\include\
 843              		.file 8 "c:\\program files (x86)\\gnu tools arm embedded\\7 2017-q4-major\\arm-none-eabi\\include\
 844              		.file 9 "c:\\program files (x86)\\gnu tools arm embedded\\7 2017-q4-major\\lib\\gcc\\arm-none-eabi
 845              		.file 10 "c:\\program files (x86)\\gnu tools arm embedded\\7 2017-q4-major\\arm-none-eabi\\include
 846              		.file 11 "Drivers/STM32F4xx_HAL_Driver/Inc/stm32f4xx_hal_def.h"
 847              		.file 12 "Drivers/STM32F4xx_HAL_Driver/Inc/stm32f4xx_hal_dma.h"
 848              		.file 13 "Drivers/STM32F4xx_HAL_Driver/Inc/stm32f4xx_hal_spi.h"
 849              		.file 14 "Drivers/STM32F4xx_HAL_Driver/Inc/stm32f4xx_hal_tim.h"
 850              		.file 15 "Inc/tim.h"
 851              		.file 16 "Inc/global.h"
 852              		.file 17 "Inc/control.h"
 853              		.file 18 "Inc/spi.h"
 854              		.file 19 "c:\\program files (x86)\\gnu tools arm embedded\\7 2017-q4-major\\arm-none-eabi\\include
 855              		.file 20 "Inc/maze.h"
 856              		.file 21 "Inc/gpio.h"
 857              		.file 22 "Drivers/STM32F4xx_HAL_Driver/Inc/stm32f4xx_hal.h"
ARM GAS  C:\Users\kotaro\AppData\Local\Temp\cc0je98R.s 			page 20


DEFINED SYMBOLS
                            *ABS*:00000000 motion.c
C:\Users\kotaro\AppData\Local\Temp\cc0je98R.s:18     .text.Normal_Turn_Half:00000000 $t
C:\Users\kotaro\AppData\Local\Temp\cc0je98R.s:25     .text.Normal_Turn_Half:00000000 Normal_Turn_Half
C:\Users\kotaro\AppData\Local\Temp\cc0je98R.s:96     .text.Normal_Turn_Half:00000058 $d
C:\Users\kotaro\AppData\Local\Temp\cc0je98R.s:102    .text.Turn_Half:00000000 $t
C:\Users\kotaro\AppData\Local\Temp\cc0je98R.s:109    .text.Turn_Half:00000000 Turn_Half
C:\Users\kotaro\AppData\Local\Temp\cc0je98R.s:182    .text.Turn_Half:00000058 $d
C:\Users\kotaro\AppData\Local\Temp\cc0je98R.s:188    .text.Normal_Ennkai:00000000 $t
C:\Users\kotaro\AppData\Local\Temp\cc0je98R.s:195    .text.Normal_Ennkai:00000000 Normal_Ennkai
C:\Users\kotaro\AppData\Local\Temp\cc0je98R.s:262    .text.Normal_Ennkai:00000054 $d
C:\Users\kotaro\AppData\Local\Temp\cc0je98R.s:268    .text.Ennkai:00000000 $t
C:\Users\kotaro\AppData\Local\Temp\cc0je98R.s:275    .text.Ennkai:00000000 Ennkai
C:\Users\kotaro\AppData\Local\Temp\cc0je98R.s:349    .text.Ennkai:0000005c $d
C:\Users\kotaro\AppData\Local\Temp\cc0je98R.s:355    .text.Normal_Straight:00000000 $t
C:\Users\kotaro\AppData\Local\Temp\cc0je98R.s:362    .text.Normal_Straight:00000000 Normal_Straight
C:\Users\kotaro\AppData\Local\Temp\cc0je98R.s:429    .text.Normal_Straight:00000054 $d
C:\Users\kotaro\AppData\Local\Temp\cc0je98R.s:435    .text.Straight:00000000 $t
C:\Users\kotaro\AppData\Local\Temp\cc0je98R.s:442    .text.Straight:00000000 Straight
C:\Users\kotaro\AppData\Local\Temp\cc0je98R.s:515    .text.Straight:00000058 $d
C:\Users\kotaro\AppData\Local\Temp\cc0je98R.s:522    .text.Show_log:00000000 $t
C:\Users\kotaro\AppData\Local\Temp\cc0je98R.s:529    .text.Show_log:00000000 Show_log
C:\Users\kotaro\AppData\Local\Temp\cc0je98R.s:623    .text.Show_log:00000080 $d
C:\Users\kotaro\AppData\Local\Temp\cc0je98R.s:635    .text.Sensor_Mode:00000000 $t
C:\Users\kotaro\AppData\Local\Temp\cc0je98R.s:642    .text.Sensor_Mode:00000000 Sensor_Mode
C:\Users\kotaro\AppData\Local\Temp\cc0je98R.s:679    .text.Sensor_Mode:00000024 $d
C:\Users\kotaro\AppData\Local\Temp\cc0je98R.s:684    .text.Test_Create_Map:00000000 $t
C:\Users\kotaro\AppData\Local\Temp\cc0je98R.s:691    .text.Test_Create_Map:00000000 Test_Create_Map
C:\Users\kotaro\AppData\Local\Temp\cc0je98R.s:723    .text.Test_Create_Map:0000001c $d
C:\Users\kotaro\AppData\Local\Temp\cc0je98R.s:728    .text.Batt_Check:00000000 $t
C:\Users\kotaro\AppData\Local\Temp\cc0je98R.s:735    .text.Batt_Check:00000000 Batt_Check
C:\Users\kotaro\AppData\Local\Temp\cc0je98R.s:806    .text.Batt_Check:00000064 $d
                            *COM*:00000002 yawrate_pid
                            *COM*:00000002 straight_pid_r
                            *COM*:00000002 straight_pid_l
                            *COM*:00000004 y_sum
                            *COM*:00000004 s_sum_r
                            *COM*:00000004 s_sum_l
C:\Users\kotaro\AppData\Local\Temp\cc0je98R.s:825    .rodata.Batt_Check.str1.4:00000000 $d
C:\Users\kotaro\AppData\Local\Temp\cc0je98R.s:829    .rodata.Show_log.str1.4:00000000 $d

UNDEFINED SYMBOLS
Output_Buzzer
HAL_Delay
gyro_offset_calc_reset
Yawrate_Calc_fb
Push
sensor
flag
Straight_Calc_Zero
Yawrate_Calc_Zero
Straight_Calc_fb
__aeabi_f2d
printf
decrease_T
constant_T
accel_T
ARM GAS  C:\Users\kotaro\AppData\Local\Temp\cc0je98R.s 			page 21


log_calc
log_enc
Sensor_Check
Maze_Set
Init_maze
MAZE_Create_Step
MAZE_Out_Step
batt_analog
batt_Vcc
